
STM32F405_VFO.elf:     file format elf32-littlearm

Sections:
Idx Name          Size      VMA       LMA       File off  Algn
  0 .isr_vector   00000188  08000000  08000000  00010000  2**0
                  CONTENTS, ALLOC, LOAD, READONLY, DATA
  1 .text         00003024  08000188  08000188  00010188  2**2
                  CONTENTS, ALLOC, LOAD, READONLY, CODE
  2 .rodata       0000006c  080031ac  080031ac  000131ac  2**0
                  CONTENTS, ALLOC, LOAD, READONLY, DATA
  3 .init_array   00000004  08003218  08003218  00013218  2**2
                  CONTENTS, ALLOC, LOAD, DATA
  4 .fini_array   00000004  0800321c  0800321c  0001321c  2**2
                  CONTENTS, ALLOC, LOAD, DATA
  5 .data         000001ec  20000000  08003220  00020000  2**2
                  CONTENTS, ALLOC, LOAD, DATA
  6 .ccmram       00000000  10000000  10000000  000201ec  2**0
                  CONTENTS
  7 .bss          00001964  200001ec  200001ec  000201ec  2**2
                  ALLOC
  8 ._user_heap_stack 00000600  20001b50  20001b50  000201ec  2**0
                  ALLOC
  9 .ARM.attributes 00000030  00000000  00000000  000201ec  2**0
                  CONTENTS, READONLY
 10 .debug_info   0001c501  00000000  00000000  0002021c  2**0
                  CONTENTS, READONLY, DEBUGGING
 11 .debug_abbrev 0000435a  00000000  00000000  0003c71d  2**0
                  CONTENTS, READONLY, DEBUGGING
 12 .debug_loc    0000aadc  00000000  00000000  00040a77  2**0
                  CONTENTS, READONLY, DEBUGGING
 13 .debug_aranges 00000e70  00000000  00000000  0004b558  2**3
                  CONTENTS, READONLY, DEBUGGING
 14 .debug_ranges 00001110  00000000  00000000  0004c3c8  2**3
                  CONTENTS, READONLY, DEBUGGING
 15 .debug_line   00007fc0  00000000  00000000  0004d4d8  2**0
                  CONTENTS, READONLY, DEBUGGING
 16 .debug_str    00005705  00000000  00000000  00055498  2**0
                  CONTENTS, READONLY, DEBUGGING
 17 .comment      0000007c  00000000  00000000  0005ab9d  2**0
                  CONTENTS, READONLY
 18 .debug_frame  0000296c  00000000  00000000  0005ac1c  2**2
                  CONTENTS, READONLY, DEBUGGING

Disassembly of section .text:

08000188 <__do_global_dtors_aux>:
 8000188:	b510      	push	{r4, lr}
 800018a:	4c05      	ldr	r4, [pc, #20]	; (80001a0 <__do_global_dtors_aux+0x18>)
 800018c:	7823      	ldrb	r3, [r4, #0]
 800018e:	b933      	cbnz	r3, 800019e <__do_global_dtors_aux+0x16>
 8000190:	4b04      	ldr	r3, [pc, #16]	; (80001a4 <__do_global_dtors_aux+0x1c>)
 8000192:	b113      	cbz	r3, 800019a <__do_global_dtors_aux+0x12>
 8000194:	4804      	ldr	r0, [pc, #16]	; (80001a8 <__do_global_dtors_aux+0x20>)
 8000196:	f3af 8000 	nop.w
 800019a:	2301      	movs	r3, #1
 800019c:	7023      	strb	r3, [r4, #0]
 800019e:	bd10      	pop	{r4, pc}
 80001a0:	200001ec 	.word	0x200001ec
 80001a4:	00000000 	.word	0x00000000
 80001a8:	08003194 	.word	0x08003194

080001ac <frame_dummy>:
 80001ac:	b508      	push	{r3, lr}
 80001ae:	4b03      	ldr	r3, [pc, #12]	; (80001bc <frame_dummy+0x10>)
 80001b0:	b11b      	cbz	r3, 80001ba <frame_dummy+0xe>
 80001b2:	4903      	ldr	r1, [pc, #12]	; (80001c0 <frame_dummy+0x14>)
 80001b4:	4803      	ldr	r0, [pc, #12]	; (80001c4 <frame_dummy+0x18>)
 80001b6:	f3af 8000 	nop.w
 80001ba:	bd08      	pop	{r3, pc}
 80001bc:	00000000 	.word	0x00000000
 80001c0:	200001f0 	.word	0x200001f0
 80001c4:	08003194 	.word	0x08003194

080001c8 <strlen>:
 80001c8:	4603      	mov	r3, r0
 80001ca:	f813 2b01 	ldrb.w	r2, [r3], #1
 80001ce:	2a00      	cmp	r2, #0
 80001d0:	d1fb      	bne.n	80001ca <strlen+0x2>
 80001d2:	1a18      	subs	r0, r3, r0
 80001d4:	3801      	subs	r0, #1
 80001d6:	4770      	bx	lr

080001d8 <HAL_InitTick>:
  *       implementation  in user file.
  * @param TickPriority Tick interrupt priority.
  * @retval HAL status
  */
__weak HAL_StatusTypeDef HAL_InitTick(uint32_t TickPriority)
{
 80001d8:	b538      	push	{r3, r4, r5, lr}
  /* Configure the SysTick to have interrupt in 1ms time basis*/
  if (HAL_SYSTICK_Config(SystemCoreClock / (1000U / uwTickFreq)) > 0U)
 80001da:	4a0e      	ldr	r2, [pc, #56]	; (8000214 <HAL_InitTick+0x3c>)
 80001dc:	4b0e      	ldr	r3, [pc, #56]	; (8000218 <HAL_InitTick+0x40>)
{
 80001de:	4605      	mov	r5, r0
  if (HAL_SYSTICK_Config(SystemCoreClock / (1000U / uwTickFreq)) > 0U)
 80001e0:	7818      	ldrb	r0, [r3, #0]
 80001e2:	f44f 737a 	mov.w	r3, #1000	; 0x3e8
 80001e6:	fbb3 f3f0 	udiv	r3, r3, r0
 80001ea:	6810      	ldr	r0, [r2, #0]
 80001ec:	fbb0 f0f3 	udiv	r0, r0, r3
 80001f0:	f000 f8aa 	bl	8000348 <HAL_SYSTICK_Config>
 80001f4:	4604      	mov	r4, r0
 80001f6:	b958      	cbnz	r0, 8000210 <HAL_InitTick+0x38>
  {
    return HAL_ERROR;
  }

  /* Configure the SysTick IRQ priority */
  if (TickPriority < (1UL << __NVIC_PRIO_BITS))
 80001f8:	2d0f      	cmp	r5, #15
 80001fa:	d809      	bhi.n	8000210 <HAL_InitTick+0x38>
  {
    HAL_NVIC_SetPriority(SysTick_IRQn, TickPriority, 0U);
 80001fc:	4602      	mov	r2, r0
 80001fe:	4629      	mov	r1, r5
 8000200:	f04f 30ff 	mov.w	r0, #4294967295
 8000204:	f000 f85e 	bl	80002c4 <HAL_NVIC_SetPriority>
    uwTickPrio = TickPriority;
 8000208:	4b04      	ldr	r3, [pc, #16]	; (800021c <HAL_InitTick+0x44>)
 800020a:	4620      	mov	r0, r4
 800020c:	601d      	str	r5, [r3, #0]
 800020e:	bd38      	pop	{r3, r4, r5, pc}
    return HAL_ERROR;
 8000210:	2001      	movs	r0, #1
    return HAL_ERROR;
  }

  /* Return function status */
  return HAL_OK;
}
 8000212:	bd38      	pop	{r3, r4, r5, pc}
 8000214:	20000120 	.word	0x20000120
 8000218:	20000000 	.word	0x20000000
 800021c:	20000004 	.word	0x20000004

08000220 <HAL_Init>:
{
 8000220:	b508      	push	{r3, lr}
  __HAL_FLASH_INSTRUCTION_CACHE_ENABLE();
 8000222:	4b0b      	ldr	r3, [pc, #44]	; (8000250 <HAL_Init+0x30>)
 8000224:	681a      	ldr	r2, [r3, #0]
 8000226:	f442 7200 	orr.w	r2, r2, #512	; 0x200
 800022a:	601a      	str	r2, [r3, #0]
  __HAL_FLASH_DATA_CACHE_ENABLE();
 800022c:	681a      	ldr	r2, [r3, #0]
 800022e:	f442 6280 	orr.w	r2, r2, #1024	; 0x400
 8000232:	601a      	str	r2, [r3, #0]
  __HAL_FLASH_PREFETCH_BUFFER_ENABLE();
 8000234:	681a      	ldr	r2, [r3, #0]
 8000236:	f442 7280 	orr.w	r2, r2, #256	; 0x100
 800023a:	601a      	str	r2, [r3, #0]
  HAL_NVIC_SetPriorityGrouping(NVIC_PRIORITYGROUP_4);
 800023c:	2003      	movs	r0, #3
 800023e:	f000 f82f 	bl	80002a0 <HAL_NVIC_SetPriorityGrouping>
  HAL_InitTick(TICK_INT_PRIORITY);
 8000242:	2000      	movs	r0, #0
 8000244:	f7ff ffc8 	bl	80001d8 <HAL_InitTick>
  HAL_MspInit();
 8000248:	f002 fb54 	bl	80028f4 <HAL_MspInit>
}
 800024c:	2000      	movs	r0, #0
 800024e:	bd08      	pop	{r3, pc}
 8000250:	40023c00 	.word	0x40023c00

08000254 <HAL_IncTick>:
  *      implementations in user file.
  * @retval None
  */
__weak void HAL_IncTick(void)
{
  uwTick += uwTickFreq;
 8000254:	4a03      	ldr	r2, [pc, #12]	; (8000264 <HAL_IncTick+0x10>)
 8000256:	4b04      	ldr	r3, [pc, #16]	; (8000268 <HAL_IncTick+0x14>)
 8000258:	6811      	ldr	r1, [r2, #0]
 800025a:	781b      	ldrb	r3, [r3, #0]
 800025c:	440b      	add	r3, r1
 800025e:	6013      	str	r3, [r2, #0]
 8000260:	4770      	bx	lr
 8000262:	bf00      	nop
 8000264:	20000220 	.word	0x20000220
 8000268:	20000000 	.word	0x20000000

0800026c <HAL_GetTick>:
  *       implementations in user file.
  * @retval tick value
  */
__weak uint32_t HAL_GetTick(void)
{
  return uwTick;
 800026c:	4b01      	ldr	r3, [pc, #4]	; (8000274 <HAL_GetTick+0x8>)
 800026e:	6818      	ldr	r0, [r3, #0]
}
 8000270:	4770      	bx	lr
 8000272:	bf00      	nop
 8000274:	20000220 	.word	0x20000220

08000278 <HAL_Delay>:
  *       implementations in user file.
  * @param Delay specifies the delay time length, in milliseconds.
  * @retval None
  */
__weak void HAL_Delay(uint32_t Delay)
{
 8000278:	b538      	push	{r3, r4, r5, lr}
 800027a:	4604      	mov	r4, r0
  uint32_t tickstart = HAL_GetTick();
 800027c:	f7ff fff6 	bl	800026c <HAL_GetTick>
  uint32_t wait = Delay;

  /* Add a freq to guarantee minimum wait */
  if (wait < HAL_MAX_DELAY)
 8000280:	1c63      	adds	r3, r4, #1
  {
    wait += (uint32_t)(uwTickFreq);
 8000282:	bf1c      	itt	ne
 8000284:	4b05      	ldrne	r3, [pc, #20]	; (800029c <HAL_Delay+0x24>)
 8000286:	781b      	ldrbne	r3, [r3, #0]
  uint32_t tickstart = HAL_GetTick();
 8000288:	4605      	mov	r5, r0
    wait += (uint32_t)(uwTickFreq);
 800028a:	bf18      	it	ne
 800028c:	18e4      	addne	r4, r4, r3
  }

  while((HAL_GetTick() - tickstart) < wait)
 800028e:	f7ff ffed 	bl	800026c <HAL_GetTick>
 8000292:	1b40      	subs	r0, r0, r5
 8000294:	4284      	cmp	r4, r0
 8000296:	d8fa      	bhi.n	800028e <HAL_Delay+0x16>
  {
  }
}
 8000298:	bd38      	pop	{r3, r4, r5, pc}
 800029a:	bf00      	nop
 800029c:	20000000 	.word	0x20000000

080002a0 <HAL_NVIC_SetPriorityGrouping>:
__STATIC_INLINE void __NVIC_SetPriorityGrouping(uint32_t PriorityGroup)
{
  uint32_t reg_value;
  uint32_t PriorityGroupTmp = (PriorityGroup & (uint32_t)0x07UL);             /* only values 0..7 are used          */

  reg_value  =  SCB->AIRCR;                                                   /* read old register configuration    */
 80002a0:	4a07      	ldr	r2, [pc, #28]	; (80002c0 <HAL_NVIC_SetPriorityGrouping+0x20>)
 80002a2:	68d3      	ldr	r3, [r2, #12]
  reg_value &= ~((uint32_t)(SCB_AIRCR_VECTKEY_Msk | SCB_AIRCR_PRIGROUP_Msk)); /* clear bits to change               */
 80002a4:	f423 63e0 	bic.w	r3, r3, #1792	; 0x700
 80002a8:	041b      	lsls	r3, r3, #16
 80002aa:	0c1b      	lsrs	r3, r3, #16
 80002ac:	f043 63bf 	orr.w	r3, r3, #100139008	; 0x5f80000
  reg_value  =  (reg_value                                   |
                ((uint32_t)0x5FAUL << SCB_AIRCR_VECTKEY_Pos) |
                (PriorityGroupTmp << SCB_AIRCR_PRIGROUP_Pos)  );              /* Insert write key and priority group */
 80002b0:	0200      	lsls	r0, r0, #8
 80002b2:	f443 3300 	orr.w	r3, r3, #131072	; 0x20000
 80002b6:	f400 60e0 	and.w	r0, r0, #1792	; 0x700
  reg_value  =  (reg_value                                   |
 80002ba:	4303      	orrs	r3, r0
  SCB->AIRCR =  reg_value;
 80002bc:	60d3      	str	r3, [r2, #12]
 80002be:	4770      	bx	lr
 80002c0:	e000ed00 	.word	0xe000ed00

080002c4 <HAL_NVIC_SetPriority>:
  \details Reads the priority grouping field from the NVIC Interrupt Controller.
  \return                Priority grouping field (SCB->AIRCR [10:8] PRIGROUP field).
 */
__STATIC_INLINE uint32_t __NVIC_GetPriorityGrouping(void)
{
  return ((uint32_t)((SCB->AIRCR & SCB_AIRCR_PRIGROUP_Msk) >> SCB_AIRCR_PRIGROUP_Pos));
 80002c4:	4b17      	ldr	r3, [pc, #92]	; (8000324 <HAL_NVIC_SetPriority+0x60>)
  *         This parameter can be a value between 0 and 15
  *         A lower priority value indicates a higher priority.          
  * @retval None
  */
void HAL_NVIC_SetPriority(IRQn_Type IRQn, uint32_t PreemptPriority, uint32_t SubPriority)
{ 
 80002c6:	b530      	push	{r4, r5, lr}
 80002c8:	68dc      	ldr	r4, [r3, #12]
 80002ca:	f3c4 2402 	ubfx	r4, r4, #8, #3
{
  uint32_t PriorityGroupTmp = (PriorityGroup & (uint32_t)0x07UL);   /* only values 0..7 are used          */
  uint32_t PreemptPriorityBits;
  uint32_t SubPriorityBits;

  PreemptPriorityBits = ((7UL - PriorityGroupTmp) > (uint32_t)(__NVIC_PRIO_BITS)) ? (uint32_t)(__NVIC_PRIO_BITS) : (uint32_t)(7UL - PriorityGroupTmp);
 80002ce:	f1c4 0307 	rsb	r3, r4, #7
  SubPriorityBits     = ((PriorityGroupTmp + (uint32_t)(__NVIC_PRIO_BITS)) < (uint32_t)7UL) ? (uint32_t)0UL : (uint32_t)((PriorityGroupTmp - 7UL) + (uint32_t)(__NVIC_PRIO_BITS));
 80002d2:	1d25      	adds	r5, r4, #4
  PreemptPriorityBits = ((7UL - PriorityGroupTmp) > (uint32_t)(__NVIC_PRIO_BITS)) ? (uint32_t)(__NVIC_PRIO_BITS) : (uint32_t)(7UL - PriorityGroupTmp);
 80002d4:	2b04      	cmp	r3, #4
 80002d6:	bf28      	it	cs
 80002d8:	2304      	movcs	r3, #4
  SubPriorityBits     = ((PriorityGroupTmp + (uint32_t)(__NVIC_PRIO_BITS)) < (uint32_t)7UL) ? (uint32_t)0UL : (uint32_t)((PriorityGroupTmp - 7UL) + (uint32_t)(__NVIC_PRIO_BITS));
 80002da:	2d06      	cmp	r5, #6

  return (
           ((PreemptPriority & (uint32_t)((1UL << (PreemptPriorityBits)) - 1UL)) << SubPriorityBits) |
 80002dc:	f04f 0501 	mov.w	r5, #1
 80002e0:	fa05 f303 	lsl.w	r3, r5, r3
 80002e4:	f103 33ff 	add.w	r3, r3, #4294967295
  SubPriorityBits     = ((PriorityGroupTmp + (uint32_t)(__NVIC_PRIO_BITS)) < (uint32_t)7UL) ? (uint32_t)0UL : (uint32_t)((PriorityGroupTmp - 7UL) + (uint32_t)(__NVIC_PRIO_BITS));
 80002e8:	bf8c      	ite	hi
 80002ea:	3c03      	subhi	r4, #3
 80002ec:	2400      	movls	r4, #0
           ((PreemptPriority & (uint32_t)((1UL << (PreemptPriorityBits)) - 1UL)) << SubPriorityBits) |
 80002ee:	4019      	ands	r1, r3
 80002f0:	40a1      	lsls	r1, r4
           ((SubPriority     & (uint32_t)((1UL << (SubPriorityBits    )) - 1UL)))
 80002f2:	fa05 f404 	lsl.w	r4, r5, r4
 80002f6:	3c01      	subs	r4, #1
 80002f8:	4022      	ands	r2, r4
  if ((int32_t)(IRQn) >= 0)
 80002fa:	2800      	cmp	r0, #0
           ((PreemptPriority & (uint32_t)((1UL << (PreemptPriorityBits)) - 1UL)) << SubPriorityBits) |
 80002fc:	ea42 0201 	orr.w	r2, r2, r1
 8000300:	ea4f 1202 	mov.w	r2, r2, lsl #4
    NVIC->IP[((uint32_t)IRQn)]               = (uint8_t)((priority << (8U - __NVIC_PRIO_BITS)) & (uint32_t)0xFFUL);
 8000304:	bfad      	iteet	ge
 8000306:	f100 4060 	addge.w	r0, r0, #3758096384	; 0xe0000000
    SCB->SHP[(((uint32_t)IRQn) & 0xFUL)-4UL] = (uint8_t)((priority << (8U - __NVIC_PRIO_BITS)) & (uint32_t)0xFFUL);
 800030a:	f000 000f 	andlt.w	r0, r0, #15
 800030e:	4b06      	ldrlt	r3, [pc, #24]	; (8000328 <HAL_NVIC_SetPriority+0x64>)
    NVIC->IP[((uint32_t)IRQn)]               = (uint8_t)((priority << (8U - __NVIC_PRIO_BITS)) & (uint32_t)0xFFUL);
 8000310:	f500 4061 	addge.w	r0, r0, #57600	; 0xe100
    SCB->SHP[(((uint32_t)IRQn) & 0xFUL)-4UL] = (uint8_t)((priority << (8U - __NVIC_PRIO_BITS)) & (uint32_t)0xFFUL);
 8000314:	bfb5      	itete	lt
 8000316:	b2d2      	uxtblt	r2, r2
    NVIC->IP[((uint32_t)IRQn)]               = (uint8_t)((priority << (8U - __NVIC_PRIO_BITS)) & (uint32_t)0xFFUL);
 8000318:	b2d2      	uxtbge	r2, r2
    SCB->SHP[(((uint32_t)IRQn) & 0xFUL)-4UL] = (uint8_t)((priority << (8U - __NVIC_PRIO_BITS)) & (uint32_t)0xFFUL);
 800031a:	541a      	strblt	r2, [r3, r0]
    NVIC->IP[((uint32_t)IRQn)]               = (uint8_t)((priority << (8U - __NVIC_PRIO_BITS)) & (uint32_t)0xFFUL);
 800031c:	f880 2300 	strbge.w	r2, [r0, #768]	; 0x300
 8000320:	bd30      	pop	{r4, r5, pc}
 8000322:	bf00      	nop
 8000324:	e000ed00 	.word	0xe000ed00
 8000328:	e000ed14 	.word	0xe000ed14

0800032c <HAL_NVIC_EnableIRQ>:
  if ((int32_t)(IRQn) >= 0)
 800032c:	2800      	cmp	r0, #0
 800032e:	db08      	blt.n	8000342 <HAL_NVIC_EnableIRQ+0x16>
    NVIC->ISER[(((uint32_t)IRQn) >> 5UL)] = (uint32_t)(1UL << (((uint32_t)IRQn) & 0x1FUL));
 8000330:	0942      	lsrs	r2, r0, #5
 8000332:	2301      	movs	r3, #1
 8000334:	f000 001f 	and.w	r0, r0, #31
 8000338:	fa03 f000 	lsl.w	r0, r3, r0
 800033c:	4b01      	ldr	r3, [pc, #4]	; (8000344 <HAL_NVIC_EnableIRQ+0x18>)
 800033e:	f843 0022 	str.w	r0, [r3, r2, lsl #2]
 8000342:	4770      	bx	lr
 8000344:	e000e100 	.word	0xe000e100

08000348 <HAL_SYSTICK_Config>:
           function <b>SysTick_Config</b> is not included. In this case, the file <b><i>device</i>.h</b>
           must contain a vendor-specific implementation of this function.
 */
__STATIC_INLINE uint32_t SysTick_Config(uint32_t ticks)
{
  if ((ticks - 1UL) > SysTick_LOAD_RELOAD_Msk)
 8000348:	3801      	subs	r0, #1
 800034a:	f1b0 7f80 	cmp.w	r0, #16777216	; 0x1000000
 800034e:	d20a      	bcs.n	8000366 <HAL_SYSTICK_Config+0x1e>
  {
    return (1UL);                                                   /* Reload value impossible */
  }

  SysTick->LOAD  = (uint32_t)(ticks - 1UL);                         /* set reload register */
 8000350:	4b06      	ldr	r3, [pc, #24]	; (800036c <HAL_SYSTICK_Config+0x24>)
    SCB->SHP[(((uint32_t)IRQn) & 0xFUL)-4UL] = (uint8_t)((priority << (8U - __NVIC_PRIO_BITS)) & (uint32_t)0xFFUL);
 8000352:	4a07      	ldr	r2, [pc, #28]	; (8000370 <HAL_SYSTICK_Config+0x28>)
  SysTick->LOAD  = (uint32_t)(ticks - 1UL);                         /* set reload register */
 8000354:	6058      	str	r0, [r3, #4]
    SCB->SHP[(((uint32_t)IRQn) & 0xFUL)-4UL] = (uint8_t)((priority << (8U - __NVIC_PRIO_BITS)) & (uint32_t)0xFFUL);
 8000356:	21f0      	movs	r1, #240	; 0xf0
 8000358:	f882 1023 	strb.w	r1, [r2, #35]	; 0x23
  NVIC_SetPriority (SysTick_IRQn, (1UL << __NVIC_PRIO_BITS) - 1UL); /* set Priority for Systick Interrupt */
  SysTick->VAL   = 0UL;                                             /* Load the SysTick Counter Value */
 800035c:	2000      	movs	r0, #0
  SysTick->CTRL  = SysTick_CTRL_CLKSOURCE_Msk |
 800035e:	2207      	movs	r2, #7
  SysTick->VAL   = 0UL;                                             /* Load the SysTick Counter Value */
 8000360:	6098      	str	r0, [r3, #8]
  SysTick->CTRL  = SysTick_CTRL_CLKSOURCE_Msk |
 8000362:	601a      	str	r2, [r3, #0]
 8000364:	4770      	bx	lr
    return (1UL);                                                   /* Reload value impossible */
 8000366:	2001      	movs	r0, #1
  *                  - 1  Function failed.
  */
uint32_t HAL_SYSTICK_Config(uint32_t TicksNumb)
{
   return SysTick_Config(TicksNumb);
}
 8000368:	4770      	bx	lr
 800036a:	bf00      	nop
 800036c:	e000e010 	.word	0xe000e010
 8000370:	e000ed00 	.word	0xe000ed00

08000374 <HAL_GPIO_Init>:
  * @param  GPIO_Init pointer to a GPIO_InitTypeDef structure that contains
  *         the configuration information for the specified GPIO peripheral.
  * @retval None
  */
void HAL_GPIO_Init(GPIO_TypeDef  *GPIOx, GPIO_InitTypeDef *GPIO_Init)
{
 8000374:	e92d 4ff0 	stmdb	sp!, {r4, r5, r6, r7, r8, r9, sl, fp, lr}
 8000378:	b085      	sub	sp, #20
  for(position = 0U; position < GPIO_NUMBER; position++)
  {
    /* Get the IO position */
    ioposition = 0x01U << position;
    /* Get the current IO position */
    iocurrent = (uint32_t)(GPIO_Init->Pin) & ioposition;
 800037a:	680b      	ldr	r3, [r1, #0]
      /*--------------------- EXTI Mode Configuration ------------------------*/
      /* Configure the External Interrupt or event for the current IO */
      if((GPIO_Init->Mode & EXTI_MODE) == EXTI_MODE)
      {
        /* Enable SYSCFG Clock */
        __HAL_RCC_SYSCFG_CLK_ENABLE();
 800037c:	f8df 81ac 	ldr.w	r8, [pc, #428]	; 800052c <HAL_GPIO_Init+0x1b8>
        temp &= ~(0x0FU << (4U * (position & 0x03U)));
        temp |= ((uint32_t)(GPIO_GET_INDEX(GPIOx)) << (4U * (position & 0x03U)));
        SYSCFG->EXTICR[position >> 2U] = temp;

        /* Clear EXTI line configuration */
        temp = EXTI->IMR;
 8000380:	4a68      	ldr	r2, [pc, #416]	; (8000524 <HAL_GPIO_Init+0x1b0>)
        temp |= ((uint32_t)(GPIO_GET_INDEX(GPIOx)) << (4U * (position & 0x03U)));
 8000382:	f8df 91ac 	ldr.w	r9, [pc, #428]	; 8000530 <HAL_GPIO_Init+0x1bc>
    iocurrent = (uint32_t)(GPIO_Init->Pin) & ioposition;
 8000386:	9301      	str	r3, [sp, #4]
  for(position = 0U; position < GPIO_NUMBER; position++)
 8000388:	2300      	movs	r3, #0
    ioposition = 0x01U << position;
 800038a:	2401      	movs	r4, #1
    iocurrent = (uint32_t)(GPIO_Init->Pin) & ioposition;
 800038c:	9d01      	ldr	r5, [sp, #4]
    ioposition = 0x01U << position;
 800038e:	409c      	lsls	r4, r3
    iocurrent = (uint32_t)(GPIO_Init->Pin) & ioposition;
 8000390:	4025      	ands	r5, r4
    if(iocurrent == ioposition)
 8000392:	42ac      	cmp	r4, r5
 8000394:	f040 80b0 	bne.w	80004f8 <HAL_GPIO_Init+0x184>
      if((GPIO_Init->Mode == GPIO_MODE_OUTPUT_PP) || (GPIO_Init->Mode == GPIO_MODE_AF_PP) ||
 8000398:	684c      	ldr	r4, [r1, #4]
 800039a:	f024 0c10 	bic.w	ip, r4, #16
 800039e:	f10c 36ff 	add.w	r6, ip, #4294967295
 80003a2:	2e01      	cmp	r6, #1
 80003a4:	ea4f 0e43 	mov.w	lr, r3, lsl #1
 80003a8:	d812      	bhi.n	80003d0 <HAL_GPIO_Init+0x5c>
        temp = GPIOx->OSPEEDR; 
 80003aa:	6887      	ldr	r7, [r0, #8]
        temp &= ~(GPIO_OSPEEDER_OSPEEDR0 << (position * 2U));
 80003ac:	2603      	movs	r6, #3
 80003ae:	fa06 f60e 	lsl.w	r6, r6, lr
 80003b2:	ea27 0706 	bic.w	r7, r7, r6
        temp |= (GPIO_Init->Speed << (position * 2U));
 80003b6:	68ce      	ldr	r6, [r1, #12]
 80003b8:	fa06 f60e 	lsl.w	r6, r6, lr
 80003bc:	433e      	orrs	r6, r7
        GPIOx->OSPEEDR = temp;
 80003be:	6086      	str	r6, [r0, #8]
        temp = GPIOx->OTYPER;
 80003c0:	6847      	ldr	r7, [r0, #4]
        temp |= (((GPIO_Init->Mode & GPIO_OUTPUT_TYPE) >> 4U) << position);
 80003c2:	f3c4 1600 	ubfx	r6, r4, #4, #1
        temp &= ~(GPIO_OTYPER_OT_0 << position) ;
 80003c6:	ea27 0705 	bic.w	r7, r7, r5
        temp |= (((GPIO_Init->Mode & GPIO_OUTPUT_TYPE) >> 4U) << position);
 80003ca:	409e      	lsls	r6, r3
 80003cc:	433e      	orrs	r6, r7
        GPIOx->OTYPER = temp;
 80003ce:	6046      	str	r6, [r0, #4]
      temp &= ~(GPIO_PUPDR_PUPDR0 << (position * 2U));
 80003d0:	2603      	movs	r6, #3
      temp = GPIOx->PUPDR;
 80003d2:	68c7      	ldr	r7, [r0, #12]
      temp &= ~(GPIO_PUPDR_PUPDR0 << (position * 2U));
 80003d4:	fa06 f60e 	lsl.w	r6, r6, lr
 80003d8:	43f6      	mvns	r6, r6
 80003da:	ea07 0a06 	and.w	sl, r7, r6
      temp |= ((GPIO_Init->Pull) << (position * 2U));
 80003de:	688f      	ldr	r7, [r1, #8]
 80003e0:	fa07 f70e 	lsl.w	r7, r7, lr
 80003e4:	ea47 070a 	orr.w	r7, r7, sl
      if((GPIO_Init->Mode == GPIO_MODE_AF_PP) || (GPIO_Init->Mode == GPIO_MODE_AF_OD))
 80003e8:	f1bc 0f02 	cmp.w	ip, #2
      GPIOx->PUPDR = temp;
 80003ec:	60c7      	str	r7, [r0, #12]
      if((GPIO_Init->Mode == GPIO_MODE_AF_PP) || (GPIO_Init->Mode == GPIO_MODE_AF_OD))
 80003ee:	d116      	bne.n	800041e <HAL_GPIO_Init+0xaa>
        temp = GPIOx->AFR[position >> 3U];
 80003f0:	ea4f 0ad3 	mov.w	sl, r3, lsr #3
 80003f4:	eb00 0a8a 	add.w	sl, r0, sl, lsl #2
        temp &= ~(0xFU << ((uint32_t)(position & 0x07U) * 4U)) ;
 80003f8:	f003 0b07 	and.w	fp, r3, #7
        temp = GPIOx->AFR[position >> 3U];
 80003fc:	f8da 7020 	ldr.w	r7, [sl, #32]
        temp &= ~(0xFU << ((uint32_t)(position & 0x07U) * 4U)) ;
 8000400:	ea4f 0b8b 	mov.w	fp, fp, lsl #2
 8000404:	f04f 0c0f 	mov.w	ip, #15
 8000408:	fa0c fc0b 	lsl.w	ip, ip, fp
 800040c:	ea27 0c0c 	bic.w	ip, r7, ip
        temp |= ((uint32_t)(GPIO_Init->Alternate) << (((uint32_t)position & 0x07U) * 4U));
 8000410:	690f      	ldr	r7, [r1, #16]
 8000412:	fa07 f70b 	lsl.w	r7, r7, fp
 8000416:	ea47 070c 	orr.w	r7, r7, ip
        GPIOx->AFR[position >> 3U] = temp;
 800041a:	f8ca 7020 	str.w	r7, [sl, #32]
      temp = GPIOx->MODER;
 800041e:	6807      	ldr	r7, [r0, #0]
      temp &= ~(GPIO_MODER_MODER0 << (position * 2U));
 8000420:	403e      	ands	r6, r7
      temp |= ((GPIO_Init->Mode & GPIO_MODE) << (position * 2U));
 8000422:	f004 0703 	and.w	r7, r4, #3
 8000426:	fa07 fe0e 	lsl.w	lr, r7, lr
 800042a:	ea4e 0606 	orr.w	r6, lr, r6
      GPIOx->MODER = temp;
 800042e:	6006      	str	r6, [r0, #0]
      if((GPIO_Init->Mode & EXTI_MODE) == EXTI_MODE)
 8000430:	00e6      	lsls	r6, r4, #3
 8000432:	d561      	bpl.n	80004f8 <HAL_GPIO_Init+0x184>
        __HAL_RCC_SYSCFG_CLK_ENABLE();
 8000434:	f04f 0b00 	mov.w	fp, #0
 8000438:	f8cd b00c 	str.w	fp, [sp, #12]
 800043c:	f8d8 7044 	ldr.w	r7, [r8, #68]	; 0x44
        temp |= ((uint32_t)(GPIO_GET_INDEX(GPIOx)) << (4U * (position & 0x03U)));
 8000440:	4e39      	ldr	r6, [pc, #228]	; (8000528 <HAL_GPIO_Init+0x1b4>)
        __HAL_RCC_SYSCFG_CLK_ENABLE();
 8000442:	f447 4780 	orr.w	r7, r7, #16384	; 0x4000
 8000446:	f8c8 7044 	str.w	r7, [r8, #68]	; 0x44
 800044a:	f8d8 7044 	ldr.w	r7, [r8, #68]	; 0x44
 800044e:	f407 4780 	and.w	r7, r7, #16384	; 0x4000
 8000452:	9703      	str	r7, [sp, #12]
 8000454:	9f03      	ldr	r7, [sp, #12]
 8000456:	f023 0703 	bic.w	r7, r3, #3
 800045a:	f107 4780 	add.w	r7, r7, #1073741824	; 0x40000000
 800045e:	f507 379c 	add.w	r7, r7, #79872	; 0x13800
        temp &= ~(0x0FU << (4U * (position & 0x03U)));
 8000462:	f003 0c03 	and.w	ip, r3, #3
        temp = SYSCFG->EXTICR[position >> 2U];
 8000466:	f8d7 a008 	ldr.w	sl, [r7, #8]
        temp &= ~(0x0FU << (4U * (position & 0x03U)));
 800046a:	ea4f 0c8c 	mov.w	ip, ip, lsl #2
 800046e:	f04f 0e0f 	mov.w	lr, #15
 8000472:	fa0e fe0c 	lsl.w	lr, lr, ip
        temp |= ((uint32_t)(GPIO_GET_INDEX(GPIOx)) << (4U * (position & 0x03U)));
 8000476:	42b0      	cmp	r0, r6
        temp &= ~(0x0FU << (4U * (position & 0x03U)));
 8000478:	ea2a 0e0e 	bic.w	lr, sl, lr
        temp |= ((uint32_t)(GPIO_GET_INDEX(GPIOx)) << (4U * (position & 0x03U)));
 800047c:	d043      	beq.n	8000506 <HAL_GPIO_Init+0x192>
 800047e:	f506 6680 	add.w	r6, r6, #1024	; 0x400
 8000482:	42b0      	cmp	r0, r6
 8000484:	d041      	beq.n	800050a <HAL_GPIO_Init+0x196>
 8000486:	f506 6680 	add.w	r6, r6, #1024	; 0x400
 800048a:	42b0      	cmp	r0, r6
 800048c:	d03f      	beq.n	800050e <HAL_GPIO_Init+0x19a>
 800048e:	f506 6680 	add.w	r6, r6, #1024	; 0x400
 8000492:	42b0      	cmp	r0, r6
 8000494:	d03d      	beq.n	8000512 <HAL_GPIO_Init+0x19e>
 8000496:	f506 6680 	add.w	r6, r6, #1024	; 0x400
 800049a:	42b0      	cmp	r0, r6
 800049c:	d03b      	beq.n	8000516 <HAL_GPIO_Init+0x1a2>
 800049e:	4548      	cmp	r0, r9
 80004a0:	d03b      	beq.n	800051a <HAL_GPIO_Init+0x1a6>
 80004a2:	f506 6600 	add.w	r6, r6, #2048	; 0x800
 80004a6:	42b0      	cmp	r0, r6
 80004a8:	d039      	beq.n	800051e <HAL_GPIO_Init+0x1aa>
 80004aa:	f506 6680 	add.w	r6, r6, #1024	; 0x400
 80004ae:	42b0      	cmp	r0, r6
 80004b0:	bf14      	ite	ne
 80004b2:	2608      	movne	r6, #8
 80004b4:	2607      	moveq	r6, #7
 80004b6:	fa06 f60c 	lsl.w	r6, r6, ip
 80004ba:	ea46 060e 	orr.w	r6, r6, lr
        SYSCFG->EXTICR[position >> 2U] = temp;
 80004be:	60be      	str	r6, [r7, #8]
        temp = EXTI->IMR;
 80004c0:	6816      	ldr	r6, [r2, #0]
        temp &= ~((uint32_t)iocurrent);
 80004c2:	43ef      	mvns	r7, r5
        if((GPIO_Init->Mode & GPIO_MODE_IT) == GPIO_MODE_IT)
 80004c4:	f414 3f80 	tst.w	r4, #65536	; 0x10000
        temp &= ~((uint32_t)iocurrent);
 80004c8:	bf0c      	ite	eq
 80004ca:	403e      	andeq	r6, r7
        {
          temp |= iocurrent;
 80004cc:	432e      	orrne	r6, r5
        }
        EXTI->IMR = temp;
 80004ce:	6016      	str	r6, [r2, #0]

        temp = EXTI->EMR;
 80004d0:	6856      	ldr	r6, [r2, #4]
        temp &= ~((uint32_t)iocurrent);
        if((GPIO_Init->Mode & GPIO_MODE_EVT) == GPIO_MODE_EVT)
 80004d2:	f414 3f00 	tst.w	r4, #131072	; 0x20000
        temp &= ~((uint32_t)iocurrent);
 80004d6:	bf0c      	ite	eq
 80004d8:	403e      	andeq	r6, r7
        {
          temp |= iocurrent;
 80004da:	432e      	orrne	r6, r5
        }
        EXTI->EMR = temp;
 80004dc:	6056      	str	r6, [r2, #4]

        /* Clear Rising Falling edge configuration */
        temp = EXTI->RTSR;
 80004de:	6896      	ldr	r6, [r2, #8]
        temp &= ~((uint32_t)iocurrent);
        if((GPIO_Init->Mode & RISING_EDGE) == RISING_EDGE)
 80004e0:	f414 1f80 	tst.w	r4, #1048576	; 0x100000
        temp &= ~((uint32_t)iocurrent);
 80004e4:	bf0c      	ite	eq
 80004e6:	403e      	andeq	r6, r7
        {
          temp |= iocurrent;
 80004e8:	432e      	orrne	r6, r5
        }
        EXTI->RTSR = temp;
 80004ea:	6096      	str	r6, [r2, #8]

        temp = EXTI->FTSR;
 80004ec:	68d6      	ldr	r6, [r2, #12]
        temp &= ~((uint32_t)iocurrent);
        if((GPIO_Init->Mode & FALLING_EDGE) == FALLING_EDGE)
 80004ee:	02a4      	lsls	r4, r4, #10
        temp &= ~((uint32_t)iocurrent);
 80004f0:	bf54      	ite	pl
 80004f2:	403e      	andpl	r6, r7
        {
          temp |= iocurrent;
 80004f4:	432e      	orrmi	r6, r5
        }
        EXTI->FTSR = temp;
 80004f6:	60d6      	str	r6, [r2, #12]
  for(position = 0U; position < GPIO_NUMBER; position++)
 80004f8:	3301      	adds	r3, #1
 80004fa:	2b10      	cmp	r3, #16
 80004fc:	f47f af45 	bne.w	800038a <HAL_GPIO_Init+0x16>
      }
    }
  }
}
 8000500:	b005      	add	sp, #20
 8000502:	e8bd 8ff0 	ldmia.w	sp!, {r4, r5, r6, r7, r8, r9, sl, fp, pc}
        temp |= ((uint32_t)(GPIO_GET_INDEX(GPIOx)) << (4U * (position & 0x03U)));
 8000506:	465e      	mov	r6, fp
 8000508:	e7d5      	b.n	80004b6 <HAL_GPIO_Init+0x142>
 800050a:	2601      	movs	r6, #1
 800050c:	e7d3      	b.n	80004b6 <HAL_GPIO_Init+0x142>
 800050e:	2602      	movs	r6, #2
 8000510:	e7d1      	b.n	80004b6 <HAL_GPIO_Init+0x142>
 8000512:	2603      	movs	r6, #3
 8000514:	e7cf      	b.n	80004b6 <HAL_GPIO_Init+0x142>
 8000516:	2604      	movs	r6, #4
 8000518:	e7cd      	b.n	80004b6 <HAL_GPIO_Init+0x142>
 800051a:	2605      	movs	r6, #5
 800051c:	e7cb      	b.n	80004b6 <HAL_GPIO_Init+0x142>
 800051e:	2606      	movs	r6, #6
 8000520:	e7c9      	b.n	80004b6 <HAL_GPIO_Init+0x142>
 8000522:	bf00      	nop
 8000524:	40013c00 	.word	0x40013c00
 8000528:	40020000 	.word	0x40020000
 800052c:	40023800 	.word	0x40023800
 8000530:	40021400 	.word	0x40021400

08000534 <HAL_PCD_Init>:
  *         parameters in the PCD_InitTypeDef and initialize the associated handle.
  * @param  hpcd PCD handle
  * @retval HAL status
  */
HAL_StatusTypeDef HAL_PCD_Init(PCD_HandleTypeDef *hpcd)
{
 8000534:	b5f0      	push	{r4, r5, r6, r7, lr}
  USB_OTG_GlobalTypeDef *USBx;
  uint8_t i;

  /* Check the PCD handle allocation */
  if (hpcd == NULL)
 8000536:	4604      	mov	r4, r0
{
 8000538:	b08b      	sub	sp, #44	; 0x2c
  if (hpcd == NULL)
 800053a:	b360      	cbz	r0, 8000596 <HAL_PCD_Init+0x62>
  /* Check the parameters */
  assert_param(IS_PCD_ALL_INSTANCE(hpcd->Instance));

  USBx = hpcd->Instance;

  if (hpcd->State == HAL_PCD_STATE_RESET)
 800053c:	f890 33bd 	ldrb.w	r3, [r0, #957]	; 0x3bd
  USBx = hpcd->Instance;
 8000540:	6805      	ldr	r5, [r0, #0]
  if (hpcd->State == HAL_PCD_STATE_RESET)
 8000542:	f003 02ff 	and.w	r2, r3, #255	; 0xff
 8000546:	b91b      	cbnz	r3, 8000550 <HAL_PCD_Init+0x1c>
  {
    /* Allocate lock resource and initialize it */
    hpcd->Lock = HAL_UNLOCKED;
 8000548:	f880 23bc 	strb.w	r2, [r0, #956]	; 0x3bc

    /* Init the low level hardware */
    hpcd->MspInitCallback(hpcd);
#else
    /* Init the low level hardware : GPIO, CLOCK, NVIC... */
    HAL_PCD_MspInit(hpcd);
 800054c:	f002 fad2 	bl	8002af4 <HAL_PCD_MspInit>
#endif /* (USE_HAL_PCD_REGISTER_CALLBACKS) */
  }

  hpcd->State = HAL_PCD_STATE_BUSY;
 8000550:	2303      	movs	r3, #3
 8000552:	f884 33bd 	strb.w	r3, [r4, #957]	; 0x3bd

  /* Disable DMA mode for FS instance */
  if ((USBx->CID & (0x1U << 8)) == 0U)
 8000556:	6beb      	ldr	r3, [r5, #60]	; 0x3c
  {
    hpcd->Init.dma_enable = 0U;
  }

  /* Disable the Interrupts */
  __HAL_PCD_DISABLE(hpcd);
 8000558:	4625      	mov	r5, r4
  if ((USBx->CID & (0x1U << 8)) == 0U)
 800055a:	f413 7380 	ands.w	r3, r3, #256	; 0x100
  __HAL_PCD_DISABLE(hpcd);
 800055e:	f855 0b10 	ldr.w	r0, [r5], #16
    hpcd->Init.dma_enable = 0U;
 8000562:	bf08      	it	eq
 8000564:	6123      	streq	r3, [r4, #16]
  __HAL_PCD_DISABLE(hpcd);
 8000566:	f000 ff0f 	bl	8001388 <USB_DisableGlobalInt>

  /*Init the Core (common init.) */
  if (USB_CoreInit(hpcd->Instance, hpcd->Init) != HAL_OK)
 800056a:	cd0f      	ldmia	r5!, {r0, r1, r2, r3}
 800056c:	466e      	mov	r6, sp
 800056e:	c60f      	stmia	r6!, {r0, r1, r2, r3}
 8000570:	cd0f      	ldmia	r5!, {r0, r1, r2, r3}
 8000572:	c60f      	stmia	r6!, {r0, r1, r2, r3}
 8000574:	e895 0003 	ldmia.w	r5, {r0, r1}
 8000578:	e886 0003 	stmia.w	r6, {r0, r1}
 800057c:	4625      	mov	r5, r4
 800057e:	1d27      	adds	r7, r4, #4
 8000580:	e897 000e 	ldmia.w	r7, {r1, r2, r3}
 8000584:	f855 0b10 	ldr.w	r0, [r5], #16
 8000588:	f000 fe44 	bl	8001214 <USB_CoreInit>
 800058c:	4606      	mov	r6, r0
 800058e:	b120      	cbz	r0, 800059a <HAL_PCD_Init+0x66>
  {
    hpcd->State = HAL_PCD_STATE_ERROR;
 8000590:	2302      	movs	r3, #2
 8000592:	f884 33bd 	strb.w	r3, [r4, #957]	; 0x3bd
    return HAL_ERROR;
 8000596:	2501      	movs	r5, #1
 8000598:	e050      	b.n	800063c <HAL_PCD_Init+0x108>
    return HAL_ERROR;
  }

  /* Force Device Mode*/
  (void)USB_SetCurrentMode(hpcd->Instance, USB_DEVICE_MODE);
 800059a:	4601      	mov	r1, r0
 800059c:	6820      	ldr	r0, [r4, #0]
 800059e:	f000 fef9 	bl	8001394 <USB_SetCurrentMode>

  /* Init endpoints structures */
  for (i = 0U; i < hpcd->Init.dev_endpoints; i++)
 80005a2:	4630      	mov	r0, r6
 80005a4:	f8d4 e004 	ldr.w	lr, [r4, #4]
  {
    /* Init ep structure */
    hpcd->IN_ep[i].is_in = 1U;
 80005a8:	261c      	movs	r6, #28
 80005aa:	f04f 0c01 	mov.w	ip, #1
    hpcd->IN_ep[i].num = i;
    hpcd->IN_ep[i].tx_fifo_num = i;
    /* Control until ep is activated */
    hpcd->IN_ep[i].type = EP_TYPE_CTRL;
 80005ae:	4601      	mov	r1, r0
 80005b0:	b2c2      	uxtb	r2, r0
  for (i = 0U; i < hpcd->Init.dev_endpoints; i++)
 80005b2:	4596      	cmp	lr, r2
 80005b4:	f100 0001 	add.w	r0, r0, #1
 80005b8:	d81c      	bhi.n	80005f4 <HAL_PCD_Init+0xc0>
 80005ba:	2300      	movs	r3, #0
    hpcd->IN_ep[i].xfer_len = 0U;
  }

  for (i = 0U; i < hpcd->Init.dev_endpoints; i++)
  {
    hpcd->OUT_ep[i].is_in = 0U;
 80005bc:	261c      	movs	r6, #28
 80005be:	4619      	mov	r1, r3
 80005c0:	b2d8      	uxtb	r0, r3
  for (i = 0U; i < hpcd->Init.dev_endpoints; i++)
 80005c2:	4586      	cmp	lr, r0
 80005c4:	f103 0301 	add.w	r3, r3, #1
 80005c8:	d822      	bhi.n	8000610 <HAL_PCD_Init+0xdc>
    hpcd->OUT_ep[i].xfer_buff = 0U;
    hpcd->OUT_ep[i].xfer_len = 0U;
  }

  /* Init Device */
  if (USB_DevInit(hpcd->Instance, hpcd->Init) != HAL_OK)
 80005ca:	cd0f      	ldmia	r5!, {r0, r1, r2, r3}
 80005cc:	466e      	mov	r6, sp
 80005ce:	c60f      	stmia	r6!, {r0, r1, r2, r3}
 80005d0:	cd0f      	ldmia	r5!, {r0, r1, r2, r3}
 80005d2:	c60f      	stmia	r6!, {r0, r1, r2, r3}
 80005d4:	e895 0003 	ldmia.w	r5, {r0, r1}
 80005d8:	e886 0003 	stmia.w	r6, {r0, r1}
 80005dc:	e897 000e 	ldmia.w	r7, {r1, r2, r3}
 80005e0:	6820      	ldr	r0, [r4, #0]
 80005e2:	f000 ff19 	bl	8001418 <USB_DevInit>
 80005e6:	2301      	movs	r3, #1
 80005e8:	4605      	mov	r5, r0
 80005ea:	b300      	cbz	r0, 800062e <HAL_PCD_Init+0xfa>
  {
    hpcd->State = HAL_PCD_STATE_ERROR;
 80005ec:	2202      	movs	r2, #2
 80005ee:	f884 23bd 	strb.w	r2, [r4, #957]	; 0x3bd
 80005f2:	e7d0      	b.n	8000596 <HAL_PCD_Init+0x62>
    hpcd->IN_ep[i].is_in = 1U;
 80005f4:	fb06 4302 	mla	r3, r6, r2, r4
 80005f8:	f883 c03d 	strb.w	ip, [r3, #61]	; 0x3d
    hpcd->IN_ep[i].num = i;
 80005fc:	f883 203c 	strb.w	r2, [r3, #60]	; 0x3c
    hpcd->IN_ep[i].tx_fifo_num = i;
 8000600:	f8a3 2042 	strh.w	r2, [r3, #66]	; 0x42
    hpcd->IN_ep[i].type = EP_TYPE_CTRL;
 8000604:	f883 103f 	strb.w	r1, [r3, #63]	; 0x3f
    hpcd->IN_ep[i].maxpacket = 0U;
 8000608:	6459      	str	r1, [r3, #68]	; 0x44
    hpcd->IN_ep[i].xfer_buff = 0U;
 800060a:	6499      	str	r1, [r3, #72]	; 0x48
    hpcd->IN_ep[i].xfer_len = 0U;
 800060c:	6519      	str	r1, [r3, #80]	; 0x50
 800060e:	e7cf      	b.n	80005b0 <HAL_PCD_Init+0x7c>
    hpcd->OUT_ep[i].is_in = 0U;
 8000610:	fb06 4200 	mla	r2, r6, r0, r4
 8000614:	f882 11fd 	strb.w	r1, [r2, #509]	; 0x1fd
    hpcd->OUT_ep[i].num = i;
 8000618:	f882 01fc 	strb.w	r0, [r2, #508]	; 0x1fc
    hpcd->OUT_ep[i].type = EP_TYPE_CTRL;
 800061c:	f882 11ff 	strb.w	r1, [r2, #511]	; 0x1ff
    hpcd->OUT_ep[i].maxpacket = 0U;
 8000620:	f8c2 1204 	str.w	r1, [r2, #516]	; 0x204
    hpcd->OUT_ep[i].xfer_buff = 0U;
 8000624:	f8c2 1208 	str.w	r1, [r2, #520]	; 0x208
    hpcd->OUT_ep[i].xfer_len = 0U;
 8000628:	f8c2 1210 	str.w	r1, [r2, #528]	; 0x210
 800062c:	e7c8      	b.n	80005c0 <HAL_PCD_Init+0x8c>
    return HAL_ERROR;
  }

  hpcd->USB_Address = 0U;
 800062e:	f884 0038 	strb.w	r0, [r4, #56]	; 0x38
  hpcd->State = HAL_PCD_STATE_READY;
 8000632:	f884 33bd 	strb.w	r3, [r4, #957]	; 0x3bd
  if (hpcd->Init.lpm_enable == 1U)
  {
    (void)HAL_PCDEx_ActivateLPM(hpcd);
  }
  #endif /* defined(STM32F446xx) || defined(STM32F469xx) || defined(STM32F479xx) || defined(STM32F412Zx) || defined(STM32F412Vx) || defined(STM32F412Rx) || defined(STM32F412Cx) || defined(STM32F413xx) || defined(STM32F423xx) */
  (void)USB_DevDisconnect(hpcd->Instance);
 8000636:	6820      	ldr	r0, [r4, #0]
 8000638:	f001 fa58 	bl	8001aec <USB_DevDisconnect>

  return HAL_OK;
}
 800063c:	4628      	mov	r0, r5
 800063e:	b00b      	add	sp, #44	; 0x2c
 8000640:	bdf0      	pop	{r4, r5, r6, r7, pc}

08000642 <HAL_PCD_Start>:
{
#if defined (USB_OTG_FS) || defined (USB_OTG_HS)
  USB_OTG_GlobalTypeDef *USBx = hpcd->Instance;
#endif /* defined (USB_OTG_FS) || defined (USB_OTG_HS) */

  __HAL_LOCK(hpcd);
 8000642:	f890 33bc 	ldrb.w	r3, [r0, #956]	; 0x3bc
 8000646:	2b01      	cmp	r3, #1
{
 8000648:	b510      	push	{r4, lr}
 800064a:	4604      	mov	r4, r0
  __HAL_LOCK(hpcd);
 800064c:	d016      	beq.n	800067c <HAL_PCD_Start+0x3a>
 800064e:	2301      	movs	r3, #1
  USB_OTG_GlobalTypeDef *USBx = hpcd->Instance;
 8000650:	6800      	ldr	r0, [r0, #0]
  __HAL_LOCK(hpcd);
 8000652:	f884 33bc 	strb.w	r3, [r4, #956]	; 0x3bc
#if defined (USB_OTG_FS) || defined (USB_OTG_HS)
  if ((hpcd->Init.battery_charging_enable == 1U) &&
 8000656:	6aa3      	ldr	r3, [r4, #40]	; 0x28
 8000658:	2b01      	cmp	r3, #1
 800065a:	d106      	bne.n	800066a <HAL_PCD_Start+0x28>
 800065c:	69a3      	ldr	r3, [r4, #24]
 800065e:	2b01      	cmp	r3, #1
      (hpcd->Init.phy_itface != USB_OTG_ULPI_PHY))
  {
    /* Enable USB Transceiver */
    USBx->GCCFG |= USB_OTG_GCCFG_PWRDWN;
 8000660:	bf1e      	ittt	ne
 8000662:	6b83      	ldrne	r3, [r0, #56]	; 0x38
 8000664:	f443 3380 	orrne.w	r3, r3, #65536	; 0x10000
 8000668:	6383      	strne	r3, [r0, #56]	; 0x38
  }
#endif /* defined (USB_OTG_FS) || defined (USB_OTG_HS) */
  (void)USB_DevConnect(hpcd->Instance);
 800066a:	f001 fa33 	bl	8001ad4 <USB_DevConnect>
  __HAL_PCD_ENABLE(hpcd);
 800066e:	6820      	ldr	r0, [r4, #0]
 8000670:	f000 fe84 	bl	800137c <USB_EnableGlobalInt>
  __HAL_UNLOCK(hpcd);
 8000674:	2000      	movs	r0, #0
 8000676:	f884 03bc 	strb.w	r0, [r4, #956]	; 0x3bc
  return HAL_OK;
 800067a:	bd10      	pop	{r4, pc}
  __HAL_LOCK(hpcd);
 800067c:	2002      	movs	r0, #2
}
 800067e:	bd10      	pop	{r4, pc}

08000680 <HAL_PCD_IRQHandler>:
  * @brief  Handles PCD interrupt request.
  * @param  hpcd PCD handle
  * @retval HAL status
  */
void HAL_PCD_IRQHandler(PCD_HandleTypeDef *hpcd)
{
 8000680:	e92d 4ff0 	stmdb	sp!, {r4, r5, r6, r7, r8, r9, sl, fp, lr}
  USB_OTG_GlobalTypeDef *USBx = hpcd->Instance;
 8000684:	f8d0 a000 	ldr.w	sl, [r0]
{
 8000688:	b087      	sub	sp, #28
 800068a:	4604      	mov	r4, r0
  uint32_t i, ep_intr, epint, epnum;
  uint32_t fifoemptymsk, temp;
  USB_OTG_EPTypeDef *ep;

  /* ensure that we are in device mode */
  if (USB_GetMode(hpcd->Instance) == USB_OTG_MODE_DEVICE)
 800068c:	4650      	mov	r0, sl
 800068e:	f001 fa68 	bl	8001b62 <USB_GetMode>
 8000692:	9002      	str	r0, [sp, #8]
 8000694:	2800      	cmp	r0, #0
 8000696:	f040 8123 	bne.w	80008e0 <HAL_PCD_IRQHandler+0x260>
  {
    /* avoid spurious interrupt */
    if (__HAL_PCD_IS_INVALID_INTERRUPT(hpcd))
 800069a:	6820      	ldr	r0, [r4, #0]
 800069c:	f001 fa32 	bl	8001b04 <USB_ReadInterrupts>
 80006a0:	2800      	cmp	r0, #0
 80006a2:	f000 811d 	beq.w	80008e0 <HAL_PCD_IRQHandler+0x260>
    {
      return;
    }

    if (__HAL_PCD_GET_FLAG(hpcd, USB_OTG_GINTSTS_MMIS))
 80006a6:	6820      	ldr	r0, [r4, #0]
 80006a8:	f001 fa2c 	bl	8001b04 <USB_ReadInterrupts>
 80006ac:	0787      	lsls	r7, r0, #30
    {
      /* incorrect mode, acknowledge the interrupt */
      __HAL_PCD_CLEAR_FLAG(hpcd, USB_OTG_GINTSTS_MMIS);
 80006ae:	bf48      	it	mi
 80006b0:	6822      	ldrmi	r2, [r4, #0]
    }

     /* Handle RxQLevel Interrupt */
    if (__HAL_PCD_GET_FLAG(hpcd, USB_OTG_GINTSTS_RXFLVL))
 80006b2:	6820      	ldr	r0, [r4, #0]
      __HAL_PCD_CLEAR_FLAG(hpcd, USB_OTG_GINTSTS_MMIS);
 80006b4:	bf42      	ittt	mi
 80006b6:	6953      	ldrmi	r3, [r2, #20]
 80006b8:	f003 0302 	andmi.w	r3, r3, #2
 80006bc:	6153      	strmi	r3, [r2, #20]
    if (__HAL_PCD_GET_FLAG(hpcd, USB_OTG_GINTSTS_RXFLVL))
 80006be:	f001 fa21 	bl	8001b04 <USB_ReadInterrupts>
 80006c2:	06c6      	lsls	r6, r0, #27
 80006c4:	d52b      	bpl.n	800071e <HAL_PCD_IRQHandler+0x9e>
    {
      USB_MASK_INTERRUPT(hpcd->Instance, USB_OTG_GINTSTS_RXFLVL);
 80006c6:	6822      	ldr	r2, [r4, #0]
 80006c8:	6993      	ldr	r3, [r2, #24]
 80006ca:	f023 0310 	bic.w	r3, r3, #16
 80006ce:	6193      	str	r3, [r2, #24]

      temp = USBx->GRXSTSP;
 80006d0:	f8da 5020 	ldr.w	r5, [sl, #32]

      ep = &hpcd->OUT_ep[temp & USB_OTG_GRXSTSP_EPNUM];

      if (((temp & USB_OTG_GRXSTSP_PKTSTS) >> 17) ==  STS_DATA_UPDT)
 80006d4:	f3c5 4343 	ubfx	r3, r5, #17, #4
 80006d8:	2b02      	cmp	r3, #2
      ep = &hpcd->OUT_ep[temp & USB_OTG_GRXSTSP_EPNUM];
 80006da:	f005 070f 	and.w	r7, r5, #15
      if (((temp & USB_OTG_GRXSTSP_PKTSTS) >> 17) ==  STS_DATA_UPDT)
 80006de:	f040 8102 	bne.w	80008e6 <HAL_PCD_IRQHandler+0x266>
      {
        if ((temp & USB_OTG_GRXSTSP_BCNT) != 0U)
 80006e2:	f647 73f0 	movw	r3, #32752	; 0x7ff0
 80006e6:	421d      	tst	r5, r3
 80006e8:	d014      	beq.n	8000714 <HAL_PCD_IRQHandler+0x94>
        {
          (void)USB_ReadPacket(USBx, ep->xfer_buff,
 80006ea:	261c      	movs	r6, #28
 80006ec:	fb06 4607 	mla	r6, r6, r7, r4
 80006f0:	f3c5 150a 	ubfx	r5, r5, #4, #11
 80006f4:	462a      	mov	r2, r5
 80006f6:	f8d6 1208 	ldr.w	r1, [r6, #520]	; 0x208
 80006fa:	4650      	mov	r0, sl
 80006fc:	f001 f974 	bl	80019e8 <USB_ReadPacket>
                               (uint16_t)((temp & USB_OTG_GRXSTSP_BCNT) >> 4));

          ep->xfer_buff += (temp & USB_OTG_GRXSTSP_BCNT) >> 4;
 8000700:	f8d6 3208 	ldr.w	r3, [r6, #520]	; 0x208
 8000704:	442b      	add	r3, r5
 8000706:	f8c6 3208 	str.w	r3, [r6, #520]	; 0x208
        }
      }
      else if (((temp & USB_OTG_GRXSTSP_PKTSTS) >> 17) ==  STS_SETUP_UPDT)
      {
        (void)USB_ReadPacket(USBx, (uint8_t *)hpcd->Setup, 8U);
        ep->xfer_count += (temp & USB_OTG_GRXSTSP_BCNT) >> 4;
 800070a:	f8d6 3214 	ldr.w	r3, [r6, #532]	; 0x214
 800070e:	441d      	add	r5, r3
 8000710:	f8c6 5214 	str.w	r5, [r6, #532]	; 0x214
      }
      else
      {
        /* ... */
      }
      USB_UNMASK_INTERRUPT(hpcd->Instance, USB_OTG_GINTSTS_RXFLVL);
 8000714:	6822      	ldr	r2, [r4, #0]
 8000716:	6993      	ldr	r3, [r2, #24]
 8000718:	f043 0310 	orr.w	r3, r3, #16
 800071c:	6193      	str	r3, [r2, #24]
    }

    if (__HAL_PCD_GET_FLAG(hpcd, USB_OTG_GINTSTS_OEPINT))
 800071e:	6820      	ldr	r0, [r4, #0]
 8000720:	f001 f9f0 	bl	8001b04 <USB_ReadInterrupts>
 8000724:	0305      	lsls	r5, r0, #12
 8000726:	f100 80ed 	bmi.w	8000904 <HAL_PCD_IRQHandler+0x284>
        epnum++;
        ep_intr >>= 1U;
      }
    }

    if (__HAL_PCD_GET_FLAG(hpcd, USB_OTG_GINTSTS_IEPINT))
 800072a:	6820      	ldr	r0, [r4, #0]
 800072c:	f001 f9ea 	bl	8001b04 <USB_ReadInterrupts>
 8000730:	0340      	lsls	r0, r0, #13
 8000732:	d50c      	bpl.n	800074e <HAL_PCD_IRQHandler+0xce>
    {
      /* Read in the device interrupt bits */
      ep_intr = USB_ReadDevAllInEpInterrupt(hpcd->Instance);
 8000734:	6820      	ldr	r0, [r4, #0]
 8000736:	f001 f9f1 	bl	8001b1c <USB_ReadDevAllInEpInterrupt>
 800073a:	4625      	mov	r5, r4
 800073c:	9003      	str	r0, [sp, #12]
 800073e:	f50a 6910 	add.w	r9, sl, #2304	; 0x900

      epnum = 0U;
 8000742:	f04f 0800 	mov.w	r8, #0

      while (ep_intr != 0U)
 8000746:	9b03      	ldr	r3, [sp, #12]
 8000748:	2b00      	cmp	r3, #0
 800074a:	f040 817f 	bne.w	8000a4c <HAL_PCD_IRQHandler+0x3cc>
        ep_intr >>= 1U;
      }
    }

    /* Handle Resume Interrupt */
    if (__HAL_PCD_GET_FLAG(hpcd, USB_OTG_GINTSTS_WKUINT))
 800074e:	6820      	ldr	r0, [r4, #0]
 8000750:	f001 f9d8 	bl	8001b04 <USB_ReadInterrupts>
 8000754:	2800      	cmp	r0, #0
 8000756:	da15      	bge.n	8000784 <HAL_PCD_IRQHandler+0x104>
    {
      /* Clear the Remote Wake-up Signaling */
      USBx_DEVICE->DCTL &= ~USB_OTG_DCTL_RWUSIG;
 8000758:	f8da 3804 	ldr.w	r3, [sl, #2052]	; 0x804
 800075c:	f023 0301 	bic.w	r3, r3, #1
 8000760:	f8ca 3804 	str.w	r3, [sl, #2052]	; 0x804

      if (hpcd->LPM_State == LPM_L1)
 8000764:	f894 33f4 	ldrb.w	r3, [r4, #1012]	; 0x3f4
 8000768:	2b01      	cmp	r3, #1
 800076a:	f040 8200 	bne.w	8000b6e <HAL_PCD_IRQHandler+0x4ee>
      {
        hpcd->LPM_State = LPM_L0;
 800076e:	2100      	movs	r1, #0
 8000770:	f884 13f4 	strb.w	r1, [r4, #1012]	; 0x3f4

#if (USE_HAL_PCD_REGISTER_CALLBACKS == 1U)
        hpcd->LPMCallback(hpcd, PCD_LPM_L0_ACTIVE);
#else
        HAL_PCDEx_LPM_Callback(hpcd, PCD_LPM_L0_ACTIVE);
 8000774:	4620      	mov	r0, r4
 8000776:	f000 fb79 	bl	8000e6c <HAL_PCDEx_LPM_Callback>
#else
        HAL_PCD_ResumeCallback(hpcd);
#endif /* USE_HAL_PCD_REGISTER_CALLBACKS */
      }

      __HAL_PCD_CLEAR_FLAG(hpcd, USB_OTG_GINTSTS_WKUINT);
 800077a:	6822      	ldr	r2, [r4, #0]
 800077c:	6953      	ldr	r3, [r2, #20]
 800077e:	f003 4300 	and.w	r3, r3, #2147483648	; 0x80000000
 8000782:	6153      	str	r3, [r2, #20]
    }

    /* Handle Suspend Interrupt */
    if (__HAL_PCD_GET_FLAG(hpcd, USB_OTG_GINTSTS_USBSUSP))
 8000784:	6820      	ldr	r0, [r4, #0]
 8000786:	f001 f9bd 	bl	8001b04 <USB_ReadInterrupts>
 800078a:	0501      	lsls	r1, r0, #20
 800078c:	d50b      	bpl.n	80007a6 <HAL_PCD_IRQHandler+0x126>
    {
      if ((USBx_DEVICE->DSTS & USB_OTG_DSTS_SUSPSTS) == USB_OTG_DSTS_SUSPSTS)
 800078e:	f8da 3808 	ldr.w	r3, [sl, #2056]	; 0x808
 8000792:	07da      	lsls	r2, r3, #31
 8000794:	d502      	bpl.n	800079c <HAL_PCD_IRQHandler+0x11c>
      {
#if (USE_HAL_PCD_REGISTER_CALLBACKS == 1U)
        hpcd->SuspendCallback(hpcd);
#else
        HAL_PCD_SuspendCallback(hpcd);
 8000796:	4620      	mov	r0, r4
 8000798:	f002 fa1c 	bl	8002bd4 <HAL_PCD_SuspendCallback>
#endif /* USE_HAL_PCD_REGISTER_CALLBACKS */
      }
      __HAL_PCD_CLEAR_FLAG(hpcd, USB_OTG_GINTSTS_USBSUSP);
 800079c:	6822      	ldr	r2, [r4, #0]
 800079e:	6953      	ldr	r3, [r2, #20]
 80007a0:	f403 6300 	and.w	r3, r3, #2048	; 0x800
 80007a4:	6153      	str	r3, [r2, #20]
#endif /* USE_HAL_PCD_REGISTER_CALLBACKS */
      }
    }
    #endif /* defined(STM32F446xx) || defined(STM32F469xx) || defined(STM32F479xx) || defined(STM32F412Zx) || defined(STM32F412Vx) || defined(STM32F412Rx) || defined(STM32F412Cx) || defined(STM32F413xx) || defined(STM32F423xx) */
    /* Handle Reset Interrupt */
    if (__HAL_PCD_GET_FLAG(hpcd, USB_OTG_GINTSTS_USBRST))
 80007a6:	6820      	ldr	r0, [r4, #0]
 80007a8:	f001 f9ac 	bl	8001b04 <USB_ReadInterrupts>
 80007ac:	04c3      	lsls	r3, r0, #19
 80007ae:	d535      	bpl.n	800081c <HAL_PCD_IRQHandler+0x19c>
    {
      USBx_DEVICE->DCTL &= ~USB_OTG_DCTL_RWUSIG;
 80007b0:	f50a 6500 	add.w	r5, sl, #2048	; 0x800
 80007b4:	686b      	ldr	r3, [r5, #4]
      (void)USB_FlushTxFifo(hpcd->Instance, 0x10U);
 80007b6:	6820      	ldr	r0, [r4, #0]
      USBx_DEVICE->DCTL &= ~USB_OTG_DCTL_RWUSIG;
 80007b8:	f023 0301 	bic.w	r3, r3, #1
 80007bc:	606b      	str	r3, [r5, #4]
      (void)USB_FlushTxFifo(hpcd->Instance, 0x10U);
 80007be:	2110      	movs	r1, #16
 80007c0:	f000 fe00 	bl	80013c4 <USB_FlushTxFifo>

      for (i = 0U; i < hpcd->Init.dev_endpoints; i++)
 80007c4:	6860      	ldr	r0, [r4, #4]
 80007c6:	f50a 6310 	add.w	r3, sl, #2304	; 0x900
      {
        USBx_INEP(i)->DIEPINT = 0xFB7FU;
 80007ca:	f64f 317f 	movw	r1, #64383	; 0xfb7f
      for (i = 0U; i < hpcd->Init.dev_endpoints; i++)
 80007ce:	9a02      	ldr	r2, [sp, #8]
 80007d0:	4282      	cmp	r2, r0
 80007d2:	f040 81d0 	bne.w	8000b76 <HAL_PCD_IRQHandler+0x4f6>
        USBx_INEP(i)->DIEPCTL |= USB_OTG_DIEPCTL_SNAK;
        USBx_OUTEP(i)->DOEPINT = 0xFB7FU;
        USBx_OUTEP(i)->DOEPCTL &= ~USB_OTG_DOEPCTL_STALL;
        USBx_OUTEP(i)->DOEPCTL |= USB_OTG_DOEPCTL_SNAK;
      }
      USBx_DEVICE->DAINTMSK |= 0x10001U;
 80007d6:	69eb      	ldr	r3, [r5, #28]
 80007d8:	f043 1301 	orr.w	r3, r3, #65537	; 0x10001
 80007dc:	61eb      	str	r3, [r5, #28]

      if (hpcd->Init.use_dedicated_ep1 != 0U)
 80007de:	6b23      	ldr	r3, [r4, #48]	; 0x30
 80007e0:	2b00      	cmp	r3, #0
 80007e2:	f000 81e4 	beq.w	8000bae <HAL_PCD_IRQHandler+0x52e>
      {
        USBx_DEVICE->DOUTEP1MSK |= USB_OTG_DOEPMSK_STUPM |
 80007e6:	f8d5 3084 	ldr.w	r3, [r5, #132]	; 0x84
 80007ea:	f043 030b 	orr.w	r3, r3, #11
 80007ee:	f8c5 3084 	str.w	r3, [r5, #132]	; 0x84
                                   USB_OTG_DOEPMSK_XFRCM |
                                   USB_OTG_DOEPMSK_EPDM;

        USBx_DEVICE->DINEP1MSK |= USB_OTG_DIEPMSK_TOM |
 80007f2:	6c6b      	ldr	r3, [r5, #68]	; 0x44
 80007f4:	f043 030b 	orr.w	r3, r3, #11
 80007f8:	646b      	str	r3, [r5, #68]	; 0x44
                                USB_OTG_DIEPMSK_XFRCM |
                                USB_OTG_DIEPMSK_EPDM;
      }

      /* Set Default Address to 0 */
      USBx_DEVICE->DCFG &= ~USB_OTG_DCFG_DAD;
 80007fa:	f8da 3800 	ldr.w	r3, [sl, #2048]	; 0x800

      /* setup EP0 to receive SETUP packets */
      (void)USB_EP0_OutStart(hpcd->Instance, (uint8_t)hpcd->Init.dma_enable,
 80007fe:	7c21      	ldrb	r1, [r4, #16]
 8000800:	6820      	ldr	r0, [r4, #0]
      USBx_DEVICE->DCFG &= ~USB_OTG_DCFG_DAD;
 8000802:	f423 63fe 	bic.w	r3, r3, #2032	; 0x7f0
 8000806:	f8ca 3800 	str.w	r3, [sl, #2048]	; 0x800
      (void)USB_EP0_OutStart(hpcd->Instance, (uint8_t)hpcd->Init.dma_enable,
 800080a:	f504 7271 	add.w	r2, r4, #964	; 0x3c4
 800080e:	f001 f9bd 	bl	8001b8c <USB_EP0_OutStart>
                             (uint8_t *)hpcd->Setup);

      __HAL_PCD_CLEAR_FLAG(hpcd, USB_OTG_GINTSTS_USBRST);
 8000812:	6822      	ldr	r2, [r4, #0]
 8000814:	6953      	ldr	r3, [r2, #20]
 8000816:	f403 5380 	and.w	r3, r3, #4096	; 0x1000
 800081a:	6153      	str	r3, [r2, #20]
    }

    /* Handle Enumeration done Interrupt */
    if (__HAL_PCD_GET_FLAG(hpcd, USB_OTG_GINTSTS_ENUMDNE))
 800081c:	6820      	ldr	r0, [r4, #0]
 800081e:	f001 f971 	bl	8001b04 <USB_ReadInterrupts>
 8000822:	0487      	lsls	r7, r0, #18
 8000824:	d516      	bpl.n	8000854 <HAL_PCD_IRQHandler+0x1d4>
    {
      (void)USB_ActivateSetup(hpcd->Instance);
 8000826:	6820      	ldr	r0, [r4, #0]
 8000828:	f001 f99f 	bl	8001b6a <USB_ActivateSetup>
      hpcd->Init.speed = USB_GetDevSpeed(hpcd->Instance);
 800082c:	6820      	ldr	r0, [r4, #0]
 800082e:	f000 fead 	bl	800158c <USB_GetDevSpeed>
 8000832:	60e0      	str	r0, [r4, #12]

      /* Set USB Turnaround time */
      (void)USB_SetTurnaroundTime(hpcd->Instance,
 8000834:	6825      	ldr	r5, [r4, #0]
 8000836:	f000 fb1b 	bl	8000e70 <HAL_RCC_GetHCLKFreq>
 800083a:	7b22      	ldrb	r2, [r4, #12]
 800083c:	4601      	mov	r1, r0
 800083e:	4628      	mov	r0, r5
 8000840:	f000 fd28 	bl	8001294 <USB_SetTurnaroundTime>
                                  (uint8_t)hpcd->Init.speed);

#if (USE_HAL_PCD_REGISTER_CALLBACKS == 1U)
      hpcd->ResetCallback(hpcd);
#else
      HAL_PCD_ResetCallback(hpcd);
 8000844:	4620      	mov	r0, r4
 8000846:	f002 f9b2 	bl	8002bae <HAL_PCD_ResetCallback>
#endif /* USE_HAL_PCD_REGISTER_CALLBACKS */

      __HAL_PCD_CLEAR_FLAG(hpcd, USB_OTG_GINTSTS_ENUMDNE);
 800084a:	6822      	ldr	r2, [r4, #0]
 800084c:	6953      	ldr	r3, [r2, #20]
 800084e:	f403 5300 	and.w	r3, r3, #8192	; 0x2000
 8000852:	6153      	str	r3, [r2, #20]
    }

    /* Handle SOF Interrupt */
    if (__HAL_PCD_GET_FLAG(hpcd, USB_OTG_GINTSTS_SOF))
 8000854:	6820      	ldr	r0, [r4, #0]
 8000856:	f001 f955 	bl	8001b04 <USB_ReadInterrupts>
 800085a:	0706      	lsls	r6, r0, #28
 800085c:	d507      	bpl.n	800086e <HAL_PCD_IRQHandler+0x1ee>
    {
#if (USE_HAL_PCD_REGISTER_CALLBACKS == 1U)
      hpcd->SOFCallback(hpcd);
#else
      HAL_PCD_SOFCallback(hpcd);
 800085e:	4620      	mov	r0, r4
 8000860:	f002 f9a1 	bl	8002ba6 <HAL_PCD_SOFCallback>
#endif /* USE_HAL_PCD_REGISTER_CALLBACKS */

      __HAL_PCD_CLEAR_FLAG(hpcd, USB_OTG_GINTSTS_SOF);
 8000864:	6822      	ldr	r2, [r4, #0]
 8000866:	6953      	ldr	r3, [r2, #20]
 8000868:	f003 0308 	and.w	r3, r3, #8
 800086c:	6153      	str	r3, [r2, #20]
    }

    /* Handle Incomplete ISO IN Interrupt */
    if (__HAL_PCD_GET_FLAG(hpcd, USB_OTG_GINTSTS_IISOIXFR))
 800086e:	6820      	ldr	r0, [r4, #0]
 8000870:	f001 f948 	bl	8001b04 <USB_ReadInterrupts>
 8000874:	02c5      	lsls	r5, r0, #11
 8000876:	d508      	bpl.n	800088a <HAL_PCD_IRQHandler+0x20a>
      epnum = 0U;

#if (USE_HAL_PCD_REGISTER_CALLBACKS == 1U)
      hpcd->ISOINIncompleteCallback(hpcd, (uint8_t)epnum);
#else
      HAL_PCD_ISOINIncompleteCallback(hpcd, (uint8_t)epnum);
 8000878:	2100      	movs	r1, #0
 800087a:	4620      	mov	r0, r4
 800087c:	f002 f9ca 	bl	8002c14 <HAL_PCD_ISOINIncompleteCallback>
#endif /* USE_HAL_PCD_REGISTER_CALLBACKS */

      __HAL_PCD_CLEAR_FLAG(hpcd, USB_OTG_GINTSTS_IISOIXFR);
 8000880:	6822      	ldr	r2, [r4, #0]
 8000882:	6953      	ldr	r3, [r2, #20]
 8000884:	f403 1380 	and.w	r3, r3, #1048576	; 0x100000
 8000888:	6153      	str	r3, [r2, #20]
    }

    /* Handle Incomplete ISO OUT Interrupt */
    if (__HAL_PCD_GET_FLAG(hpcd, USB_OTG_GINTSTS_PXFR_INCOMPISOOUT))
 800088a:	6820      	ldr	r0, [r4, #0]
 800088c:	f001 f93a 	bl	8001b04 <USB_ReadInterrupts>
 8000890:	0280      	lsls	r0, r0, #10
 8000892:	d508      	bpl.n	80008a6 <HAL_PCD_IRQHandler+0x226>
      epnum = 0U;

#if (USE_HAL_PCD_REGISTER_CALLBACKS == 1U)
      hpcd->ISOOUTIncompleteCallback(hpcd, (uint8_t)epnum);
#else
      HAL_PCD_ISOOUTIncompleteCallback(hpcd, (uint8_t)epnum);
 8000894:	2100      	movs	r1, #0
 8000896:	4620      	mov	r0, r4
 8000898:	f002 f9b8 	bl	8002c0c <HAL_PCD_ISOOUTIncompleteCallback>
#endif /* USE_HAL_PCD_REGISTER_CALLBACKS */

      __HAL_PCD_CLEAR_FLAG(hpcd, USB_OTG_GINTSTS_PXFR_INCOMPISOOUT);
 800089c:	6822      	ldr	r2, [r4, #0]
 800089e:	6953      	ldr	r3, [r2, #20]
 80008a0:	f403 1300 	and.w	r3, r3, #2097152	; 0x200000
 80008a4:	6153      	str	r3, [r2, #20]
    }

    /* Handle Connection event Interrupt */
    if (__HAL_PCD_GET_FLAG(hpcd, USB_OTG_GINTSTS_SRQINT))
 80008a6:	6820      	ldr	r0, [r4, #0]
 80008a8:	f001 f92c 	bl	8001b04 <USB_ReadInterrupts>
 80008ac:	0041      	lsls	r1, r0, #1
 80008ae:	d507      	bpl.n	80008c0 <HAL_PCD_IRQHandler+0x240>
    {
#if (USE_HAL_PCD_REGISTER_CALLBACKS == 1U)
      hpcd->ConnectCallback(hpcd);
#else
      HAL_PCD_ConnectCallback(hpcd);
 80008b0:	4620      	mov	r0, r4
 80008b2:	f002 f9b3 	bl	8002c1c <HAL_PCD_ConnectCallback>
#endif /* USE_HAL_PCD_REGISTER_CALLBACKS */

      __HAL_PCD_CLEAR_FLAG(hpcd, USB_OTG_GINTSTS_SRQINT);
 80008b6:	6822      	ldr	r2, [r4, #0]
 80008b8:	6953      	ldr	r3, [r2, #20]
 80008ba:	f003 4380 	and.w	r3, r3, #1073741824	; 0x40000000
 80008be:	6153      	str	r3, [r2, #20]
    }

    /* Handle Disconnection event Interrupt */
    if (__HAL_PCD_GET_FLAG(hpcd, USB_OTG_GINTSTS_OTGINT))
 80008c0:	6820      	ldr	r0, [r4, #0]
 80008c2:	f001 f91f 	bl	8001b04 <USB_ReadInterrupts>
 80008c6:	0742      	lsls	r2, r0, #29
 80008c8:	d50a      	bpl.n	80008e0 <HAL_PCD_IRQHandler+0x260>
    {
      temp = hpcd->Instance->GOTGINT;
 80008ca:	6823      	ldr	r3, [r4, #0]
 80008cc:	685d      	ldr	r5, [r3, #4]

      if ((temp & USB_OTG_GOTGINT_SEDET) == USB_OTG_GOTGINT_SEDET)
 80008ce:	076b      	lsls	r3, r5, #29
 80008d0:	d502      	bpl.n	80008d8 <HAL_PCD_IRQHandler+0x258>
      {
#if (USE_HAL_PCD_REGISTER_CALLBACKS == 1U)
        hpcd->DisconnectCallback(hpcd);
#else
        HAL_PCD_DisconnectCallback(hpcd);
 80008d2:	4620      	mov	r0, r4
 80008d4:	f002 f9a6 	bl	8002c24 <HAL_PCD_DisconnectCallback>
#endif /* USE_HAL_PCD_REGISTER_CALLBACKS */
      }
      hpcd->Instance->GOTGINT |= temp;
 80008d8:	6823      	ldr	r3, [r4, #0]
 80008da:	685a      	ldr	r2, [r3, #4]
 80008dc:	4315      	orrs	r5, r2
 80008de:	605d      	str	r5, [r3, #4]
    }
  }
}
 80008e0:	b007      	add	sp, #28
 80008e2:	e8bd 8ff0 	ldmia.w	sp!, {r4, r5, r6, r7, r8, r9, sl, fp, pc}
      else if (((temp & USB_OTG_GRXSTSP_PKTSTS) >> 17) ==  STS_SETUP_UPDT)
 80008e6:	2b06      	cmp	r3, #6
 80008e8:	f47f af14 	bne.w	8000714 <HAL_PCD_IRQHandler+0x94>
        (void)USB_ReadPacket(USBx, (uint8_t *)hpcd->Setup, 8U);
 80008ec:	2208      	movs	r2, #8
 80008ee:	f504 7171 	add.w	r1, r4, #964	; 0x3c4
 80008f2:	4650      	mov	r0, sl
        ep->xfer_count += (temp & USB_OTG_GRXSTSP_BCNT) >> 4;
 80008f4:	261c      	movs	r6, #28
        (void)USB_ReadPacket(USBx, (uint8_t *)hpcd->Setup, 8U);
 80008f6:	f001 f877 	bl	80019e8 <USB_ReadPacket>
        ep->xfer_count += (temp & USB_OTG_GRXSTSP_BCNT) >> 4;
 80008fa:	fb06 4607 	mla	r6, r6, r7, r4
 80008fe:	f3c5 150a 	ubfx	r5, r5, #4, #11
 8000902:	e702      	b.n	800070a <HAL_PCD_IRQHandler+0x8a>
      ep_intr = USB_ReadDevAllOutEpInterrupt(hpcd->Instance);
 8000904:	6820      	ldr	r0, [r4, #0]
 8000906:	f001 f901 	bl	8001b0c <USB_ReadDevAllOutEpInterrupt>
 800090a:	f50a 6630 	add.w	r6, sl, #2816	; 0xb00
 800090e:	4681      	mov	r9, r0
 8000910:	4627      	mov	r7, r4
      epnum = 0U;
 8000912:	2500      	movs	r5, #0
      while (ep_intr != 0U)
 8000914:	f1b9 0f00 	cmp.w	r9, #0
 8000918:	f43f af07 	beq.w	800072a <HAL_PCD_IRQHandler+0xaa>
        if ((ep_intr & 0x1U) != 0U)
 800091c:	f019 0f01 	tst.w	r9, #1
 8000920:	d057      	beq.n	80009d2 <HAL_PCD_IRQHandler+0x352>
          epint = USB_ReadDevOutEPInterrupt(hpcd->Instance, (uint8_t)epnum);
 8000922:	fa5f fb85 	uxtb.w	fp, r5
 8000926:	4659      	mov	r1, fp
 8000928:	6820      	ldr	r0, [r4, #0]
 800092a:	f001 f8ff 	bl	8001b2c <USB_ReadDevOutEPInterrupt>
          if ((epint & USB_OTG_DOEPINT_XFRC) == USB_OTG_DOEPINT_XFRC)
 800092e:	f010 0f01 	tst.w	r0, #1
          epint = USB_ReadDevOutEPInterrupt(hpcd->Instance, (uint8_t)epnum);
 8000932:	4680      	mov	r8, r0
          if ((epint & USB_OTG_DOEPINT_XFRC) == USB_OTG_DOEPINT_XFRC)
 8000934:	d01a      	beq.n	800096c <HAL_PCD_IRQHandler+0x2ec>
  * @param  epnum endpoint number
  * @retval HAL status
  */
static HAL_StatusTypeDef PCD_EP_OutXfrComplete_int(PCD_HandleTypeDef *hpcd, uint32_t epnum)
{
  USB_OTG_GlobalTypeDef *USBx = hpcd->Instance;
 8000936:	6820      	ldr	r0, [r4, #0]
  uint32_t USBx_BASE = (uint32_t)USBx;
  uint32_t gSNPSiD = *(__IO uint32_t *)(&USBx->CID + 0x1U);
  uint32_t DoepintReg = USBx_OUTEP(epnum)->DOEPINT;

  if (hpcd->Init.dma_enable == 1U)
 8000938:	6921      	ldr	r1, [r4, #16]
            CLEAR_OUT_EP_INTR(epnum, USB_OTG_DOEPINT_XFRC);
 800093a:	2301      	movs	r3, #1
 800093c:	60b3      	str	r3, [r6, #8]
  uint32_t DoepintReg = USBx_OUTEP(epnum)->DOEPINT;
 800093e:	f500 6330 	add.w	r3, r0, #2816	; 0xb00
 8000942:	eb03 1345 	add.w	r3, r3, r5, lsl #5
  if (hpcd->Init.dma_enable == 1U)
 8000946:	2901      	cmp	r1, #1
  uint32_t gSNPSiD = *(__IO uint32_t *)(&USBx->CID + 0x1U);
 8000948:	f8d0 e040 	ldr.w	lr, [r0, #64]	; 0x40
  uint32_t DoepintReg = USBx_OUTEP(epnum)->DOEPINT;
 800094c:	689a      	ldr	r2, [r3, #8]
  if (hpcd->Init.dma_enable == 1U)
 800094e:	d165      	bne.n	8000a1c <HAL_PCD_IRQHandler+0x39c>
  {
    if ((DoepintReg & USB_OTG_DOEPINT_STUP) == USB_OTG_DOEPINT_STUP) /* Class C */
 8000950:	0711      	lsls	r1, r2, #28
 8000952:	d507      	bpl.n	8000964 <HAL_PCD_IRQHandler+0x2e4>
    {
      /* StupPktRcvd = 1 this is a setup packet */
      if ((gSNPSiD > USB_OTG_CORE_ID_300A) &&
 8000954:	499b      	ldr	r1, [pc, #620]	; (8000bc4 <HAL_PCD_IRQHandler+0x544>)
 8000956:	458e      	cmp	lr, r1
 8000958:	d908      	bls.n	800096c <HAL_PCD_IRQHandler+0x2ec>
 800095a:	0410      	lsls	r0, r2, #16
 800095c:	d506      	bpl.n	800096c <HAL_PCD_IRQHandler+0x2ec>
    if (gSNPSiD == USB_OTG_CORE_ID_310A)
    {
      /* StupPktRcvd = 1 this is a setup packet */
      if ((DoepintReg & USB_OTG_DOEPINT_STPKTRX) == USB_OTG_DOEPINT_STPKTRX)
      {
        CLEAR_OUT_EP_INTR(epnum, USB_OTG_DOEPINT_STPKTRX);
 800095e:	f44f 4200 	mov.w	r2, #32768	; 0x8000
 8000962:	e002      	b.n	800096a <HAL_PCD_IRQHandler+0x2ea>
    else if ((DoepintReg & USB_OTG_DOEPINT_OTEPSPR) == USB_OTG_DOEPINT_OTEPSPR) /* Class E */
 8000964:	0691      	lsls	r1, r2, #26
 8000966:	d53a      	bpl.n	80009de <HAL_PCD_IRQHandler+0x35e>
      CLEAR_OUT_EP_INTR(epnum, USB_OTG_DOEPINT_OTEPSPR);
 8000968:	2220      	movs	r2, #32
        CLEAR_OUT_EP_INTR(epnum, USB_OTG_DOEPINT_STPKTRX);
 800096a:	609a      	str	r2, [r3, #8]
          if ((epint & USB_OTG_DOEPINT_STUP) == USB_OTG_DOEPINT_STUP)
 800096c:	f018 0f08 	tst.w	r8, #8
 8000970:	d01f      	beq.n	80009b2 <HAL_PCD_IRQHandler+0x332>
            CLEAR_OUT_EP_INTR(epnum, USB_OTG_DOEPINT_STUP);
 8000972:	2308      	movs	r3, #8
 8000974:	60b3      	str	r3, [r6, #8]
  * @param  epnum endpoint number
  * @retval HAL status
  */
static HAL_StatusTypeDef PCD_EP_OutSetupPacket_int(PCD_HandleTypeDef *hpcd, uint32_t epnum)
{
  USB_OTG_GlobalTypeDef *USBx = hpcd->Instance;
 8000976:	6823      	ldr	r3, [r4, #0]
  uint32_t USBx_BASE = (uint32_t)USBx;
  uint32_t gSNPSiD = *(__IO uint32_t *)(&USBx->CID + 0x1U);
  uint32_t DoepintReg = USBx_OUTEP(epnum)->DOEPINT;

  if ((gSNPSiD > USB_OTG_CORE_ID_300A) &&
 8000978:	4992      	ldr	r1, [pc, #584]	; (8000bc4 <HAL_PCD_IRQHandler+0x544>)
  uint32_t gSNPSiD = *(__IO uint32_t *)(&USBx->CID + 0x1U);
 800097a:	f8d3 b040 	ldr.w	fp, [r3, #64]	; 0x40
  uint32_t DoepintReg = USBx_OUTEP(epnum)->DOEPINT;
 800097e:	f503 6330 	add.w	r3, r3, #2816	; 0xb00
 8000982:	eb03 1345 	add.w	r3, r3, r5, lsl #5
  if ((gSNPSiD > USB_OTG_CORE_ID_300A) &&
 8000986:	458b      	cmp	fp, r1
  uint32_t DoepintReg = USBx_OUTEP(epnum)->DOEPINT;
 8000988:	689a      	ldr	r2, [r3, #8]
  if ((gSNPSiD > USB_OTG_CORE_ID_300A) &&
 800098a:	d904      	bls.n	8000996 <HAL_PCD_IRQHandler+0x316>
 800098c:	0412      	lsls	r2, r2, #16
      ((DoepintReg & USB_OTG_DOEPINT_STPKTRX) == USB_OTG_DOEPINT_STPKTRX))
  {
    CLEAR_OUT_EP_INTR(epnum, USB_OTG_DOEPINT_STPKTRX);
 800098e:	bf44      	itt	mi
 8000990:	f44f 4200 	movmi.w	r2, #32768	; 0x8000
 8000994:	609a      	strmi	r2, [r3, #8]

  /* Inform the upper layer that a setup packet is available */
#if (USE_HAL_PCD_REGISTER_CALLBACKS == 1U)
  hpcd->SetupStageCallback(hpcd);
#else
  HAL_PCD_SetupStageCallback(hpcd);
 8000996:	4620      	mov	r0, r4
 8000998:	f002 f8ee 	bl	8002b78 <HAL_PCD_SetupStageCallback>
#endif /* USE_HAL_PCD_REGISTER_CALLBACKS */

  if ((gSNPSiD > USB_OTG_CORE_ID_300A) && (hpcd->Init.dma_enable == 1U))
 800099c:	4b89      	ldr	r3, [pc, #548]	; (8000bc4 <HAL_PCD_IRQHandler+0x544>)
 800099e:	459b      	cmp	fp, r3
 80009a0:	d907      	bls.n	80009b2 <HAL_PCD_IRQHandler+0x332>
 80009a2:	6921      	ldr	r1, [r4, #16]
 80009a4:	2901      	cmp	r1, #1
 80009a6:	d104      	bne.n	80009b2 <HAL_PCD_IRQHandler+0x332>
  {
    (void)USB_EP0_OutStart(hpcd->Instance, 1U, (uint8_t *)hpcd->Setup);
 80009a8:	f504 7271 	add.w	r2, r4, #964	; 0x3c4
 80009ac:	6820      	ldr	r0, [r4, #0]
 80009ae:	f001 f8ed 	bl	8001b8c <USB_EP0_OutStart>
          if ((epint & USB_OTG_DOEPINT_OTEPDIS) == USB_OTG_DOEPINT_OTEPDIS)
 80009b2:	f018 0f10 	tst.w	r8, #16
            CLEAR_OUT_EP_INTR(epnum, USB_OTG_DOEPINT_OTEPDIS);
 80009b6:	bf1c      	itt	ne
 80009b8:	2310      	movne	r3, #16
 80009ba:	60b3      	strne	r3, [r6, #8]
          if ((epint & USB_OTG_DOEPINT_OTEPSPR) == USB_OTG_DOEPINT_OTEPSPR)
 80009bc:	f018 0f20 	tst.w	r8, #32
            CLEAR_OUT_EP_INTR(epnum, USB_OTG_DOEPINT_OTEPSPR);
 80009c0:	bf1c      	itt	ne
 80009c2:	2320      	movne	r3, #32
 80009c4:	60b3      	strne	r3, [r6, #8]
          if ((epint & USB_OTG_DOEPINT_NAK) == USB_OTG_DOEPINT_NAK)
 80009c6:	f418 5f00 	tst.w	r8, #8192	; 0x2000
            CLEAR_OUT_EP_INTR(epnum, USB_OTG_DOEPINT_NAK);
 80009ca:	bf1c      	itt	ne
 80009cc:	f44f 5300 	movne.w	r3, #8192	; 0x2000
 80009d0:	60b3      	strne	r3, [r6, #8]
        epnum++;
 80009d2:	3501      	adds	r5, #1
        ep_intr >>= 1U;
 80009d4:	ea4f 0959 	mov.w	r9, r9, lsr #1
 80009d8:	3620      	adds	r6, #32
 80009da:	371c      	adds	r7, #28
 80009dc:	e79a      	b.n	8000914 <HAL_PCD_IRQHandler+0x294>
    else if ((DoepintReg & (USB_OTG_DOEPINT_STUP | USB_OTG_DOEPINT_OTEPSPR)) == 0U)
 80009de:	f012 0f28 	tst.w	r2, #40	; 0x28
 80009e2:	d1c3      	bne.n	800096c <HAL_PCD_IRQHandler+0x2ec>
      if ((gSNPSiD > USB_OTG_CORE_ID_300A) &&
 80009e4:	4977      	ldr	r1, [pc, #476]	; (8000bc4 <HAL_PCD_IRQHandler+0x544>)
 80009e6:	458e      	cmp	lr, r1
 80009e8:	d901      	bls.n	80009ee <HAL_PCD_IRQHandler+0x36e>
 80009ea:	0412      	lsls	r2, r2, #16
 80009ec:	d4b7      	bmi.n	800095e <HAL_PCD_IRQHandler+0x2de>
          (USBx_OUTEP(epnum)->DOEPTSIZ & USB_OTG_DOEPTSIZ_XFRSIZ);
 80009ee:	691b      	ldr	r3, [r3, #16]
          hpcd->OUT_ep[epnum].maxpacket -
 80009f0:	f8d7 2204 	ldr.w	r2, [r7, #516]	; 0x204
          (USBx_OUTEP(epnum)->DOEPTSIZ & USB_OTG_DOEPTSIZ_XFRSIZ);
 80009f4:	f3c3 0312 	ubfx	r3, r3, #0, #19
          hpcd->OUT_ep[epnum].maxpacket -
 80009f8:	1ad3      	subs	r3, r2, r3
        hpcd->OUT_ep[epnum].xfer_count =
 80009fa:	f8c7 3214 	str.w	r3, [r7, #532]	; 0x214
        hpcd->OUT_ep[epnum].xfer_buff += hpcd->OUT_ep[epnum].maxpacket;
 80009fe:	f8d7 3208 	ldr.w	r3, [r7, #520]	; 0x208
 8000a02:	441a      	add	r2, r3
 8000a04:	f8c7 2208 	str.w	r2, [r7, #520]	; 0x208
        if ((epnum == 0U) && (hpcd->OUT_ep[epnum].xfer_len == 0U))
 8000a08:	b98d      	cbnz	r5, 8000a2e <HAL_PCD_IRQHandler+0x3ae>
 8000a0a:	f8d4 3210 	ldr.w	r3, [r4, #528]	; 0x210
 8000a0e:	b973      	cbnz	r3, 8000a2e <HAL_PCD_IRQHandler+0x3ae>
          (void)USB_EP0_OutStart(hpcd->Instance, 1U, (uint8_t *)hpcd->Setup);
 8000a10:	f504 7271 	add.w	r2, r4, #964	; 0x3c4
 8000a14:	2101      	movs	r1, #1
        (void)USB_EP0_OutStart(hpcd->Instance, 0U, (uint8_t *)hpcd->Setup);
 8000a16:	f001 f8b9 	bl	8001b8c <USB_EP0_OutStart>
 8000a1a:	e008      	b.n	8000a2e <HAL_PCD_IRQHandler+0x3ae>
    if (gSNPSiD == USB_OTG_CORE_ID_310A)
 8000a1c:	496a      	ldr	r1, [pc, #424]	; (8000bc8 <HAL_PCD_IRQHandler+0x548>)
 8000a1e:	458e      	cmp	lr, r1
 8000a20:	d10a      	bne.n	8000a38 <HAL_PCD_IRQHandler+0x3b8>
      if ((DoepintReg & USB_OTG_DOEPINT_STPKTRX) == USB_OTG_DOEPINT_STPKTRX)
 8000a22:	0410      	lsls	r0, r2, #16
 8000a24:	d49b      	bmi.n	800095e <HAL_PCD_IRQHandler+0x2de>
        if ((DoepintReg & USB_OTG_DOEPINT_OTEPSPR) == USB_OTG_DOEPINT_OTEPSPR)
 8000a26:	0691      	lsls	r1, r2, #26
 8000a28:	d501      	bpl.n	8000a2e <HAL_PCD_IRQHandler+0x3ae>
          CLEAR_OUT_EP_INTR(epnum, USB_OTG_DOEPINT_OTEPSPR);
 8000a2a:	2220      	movs	r2, #32
 8000a2c:	609a      	str	r2, [r3, #8]
      HAL_PCD_DataOutStageCallback(hpcd, (uint8_t)epnum);
 8000a2e:	4659      	mov	r1, fp
 8000a30:	4620      	mov	r0, r4
 8000a32:	f002 f8a7 	bl	8002b84 <HAL_PCD_DataOutStageCallback>
 8000a36:	e799      	b.n	800096c <HAL_PCD_IRQHandler+0x2ec>
      if ((epnum == 0U) && (hpcd->OUT_ep[epnum].xfer_len == 0U))
 8000a38:	2d00      	cmp	r5, #0
 8000a3a:	d1f8      	bne.n	8000a2e <HAL_PCD_IRQHandler+0x3ae>
 8000a3c:	f8d4 3210 	ldr.w	r3, [r4, #528]	; 0x210
 8000a40:	2b00      	cmp	r3, #0
 8000a42:	d1f4      	bne.n	8000a2e <HAL_PCD_IRQHandler+0x3ae>
        (void)USB_EP0_OutStart(hpcd->Instance, 0U, (uint8_t *)hpcd->Setup);
 8000a44:	f504 7271 	add.w	r2, r4, #964	; 0x3c4
 8000a48:	4629      	mov	r1, r5
 8000a4a:	e7e4      	b.n	8000a16 <HAL_PCD_IRQHandler+0x396>
        if ((ep_intr & 0x1U) != 0U) /* In ITR */
 8000a4c:	9b03      	ldr	r3, [sp, #12]
 8000a4e:	07de      	lsls	r6, r3, #31
 8000a50:	f140 8084 	bpl.w	8000b5c <HAL_PCD_IRQHandler+0x4dc>
          epint = USB_ReadDevInEPInterrupt(hpcd->Instance, (uint8_t)epnum);
 8000a54:	fa5f fb88 	uxtb.w	fp, r8
 8000a58:	4659      	mov	r1, fp
 8000a5a:	6820      	ldr	r0, [r4, #0]
 8000a5c:	f001 f86f 	bl	8001b3e <USB_ReadDevInEPInterrupt>
 8000a60:	4606      	mov	r6, r0
          if ((epint & USB_OTG_DIEPINT_XFRC) == USB_OTG_DIEPINT_XFRC)
 8000a62:	07f0      	lsls	r0, r6, #31
 8000a64:	d521      	bpl.n	8000aaa <HAL_PCD_IRQHandler+0x42a>
            USBx_DEVICE->DIEPEMPMSK &= ~fifoemptymsk;
 8000a66:	f8da 3834 	ldr.w	r3, [sl, #2100]	; 0x834
            if (hpcd->Init.dma_enable == 1U)
 8000a6a:	6921      	ldr	r1, [r4, #16]
            fifoemptymsk = (uint32_t)(0x1UL << (epnum & EP_ADDR_MSK));
 8000a6c:	2001      	movs	r0, #1
 8000a6e:	f008 020f 	and.w	r2, r8, #15
 8000a72:	fa00 f202 	lsl.w	r2, r0, r2
            USBx_DEVICE->DIEPEMPMSK &= ~fifoemptymsk;
 8000a76:	ea23 0302 	bic.w	r3, r3, r2
            if (hpcd->Init.dma_enable == 1U)
 8000a7a:	4281      	cmp	r1, r0
            USBx_DEVICE->DIEPEMPMSK &= ~fifoemptymsk;
 8000a7c:	f8ca 3834 	str.w	r3, [sl, #2100]	; 0x834
            CLEAR_IN_EP_INTR(epnum, USB_OTG_DIEPINT_XFRC);
 8000a80:	f8c9 0008 	str.w	r0, [r9, #8]
            if (hpcd->Init.dma_enable == 1U)
 8000a84:	d10d      	bne.n	8000aa2 <HAL_PCD_IRQHandler+0x422>
              hpcd->IN_ep[epnum].xfer_buff += hpcd->IN_ep[epnum].maxpacket;
 8000a86:	6cab      	ldr	r3, [r5, #72]	; 0x48
 8000a88:	6c6a      	ldr	r2, [r5, #68]	; 0x44
 8000a8a:	4413      	add	r3, r2
 8000a8c:	64ab      	str	r3, [r5, #72]	; 0x48
              if ((epnum == 0U) && (hpcd->IN_ep[epnum].xfer_len == 0U))
 8000a8e:	f1b8 0f00 	cmp.w	r8, #0
 8000a92:	d106      	bne.n	8000aa2 <HAL_PCD_IRQHandler+0x422>
 8000a94:	6d23      	ldr	r3, [r4, #80]	; 0x50
 8000a96:	b923      	cbnz	r3, 8000aa2 <HAL_PCD_IRQHandler+0x422>
                (void)USB_EP0_OutStart(hpcd->Instance, 1U, (uint8_t *)hpcd->Setup);
 8000a98:	f504 7271 	add.w	r2, r4, #964	; 0x3c4
 8000a9c:	6820      	ldr	r0, [r4, #0]
 8000a9e:	f001 f875 	bl	8001b8c <USB_EP0_OutStart>
            HAL_PCD_DataInStageCallback(hpcd, (uint8_t)epnum);
 8000aa2:	4659      	mov	r1, fp
 8000aa4:	4620      	mov	r0, r4
 8000aa6:	f002 f876 	bl	8002b96 <HAL_PCD_DataInStageCallback>
          if ((epint & USB_OTG_DIEPINT_TOC) == USB_OTG_DIEPINT_TOC)
 8000aaa:	0731      	lsls	r1, r6, #28
            CLEAR_IN_EP_INTR(epnum, USB_OTG_DIEPINT_TOC);
 8000aac:	bf44      	itt	mi
 8000aae:	2308      	movmi	r3, #8
 8000ab0:	f8c9 3008 	strmi.w	r3, [r9, #8]
          if ((epint & USB_OTG_DIEPINT_ITTXFE) == USB_OTG_DIEPINT_ITTXFE)
 8000ab4:	06f2      	lsls	r2, r6, #27
            CLEAR_IN_EP_INTR(epnum, USB_OTG_DIEPINT_ITTXFE);
 8000ab6:	bf44      	itt	mi
 8000ab8:	2310      	movmi	r3, #16
 8000aba:	f8c9 3008 	strmi.w	r3, [r9, #8]
          if ((epint & USB_OTG_DIEPINT_INEPNE) == USB_OTG_DIEPINT_INEPNE)
 8000abe:	0673      	lsls	r3, r6, #25
            CLEAR_IN_EP_INTR(epnum, USB_OTG_DIEPINT_INEPNE);
 8000ac0:	bf44      	itt	mi
 8000ac2:	2340      	movmi	r3, #64	; 0x40
 8000ac4:	f8c9 3008 	strmi.w	r3, [r9, #8]
          if ((epint & USB_OTG_DIEPINT_EPDISD) == USB_OTG_DIEPINT_EPDISD)
 8000ac8:	07b7      	lsls	r7, r6, #30
            CLEAR_IN_EP_INTR(epnum, USB_OTG_DIEPINT_EPDISD);
 8000aca:	bf44      	itt	mi
 8000acc:	2302      	movmi	r3, #2
 8000ace:	f8c9 3008 	strmi.w	r3, [r9, #8]
          if ((epint & USB_OTG_DIEPINT_TXFE) == USB_OTG_DIEPINT_TXFE)
 8000ad2:	0630      	lsls	r0, r6, #24
 8000ad4:	d542      	bpl.n	8000b5c <HAL_PCD_IRQHandler+0x4dc>
  if (ep->xfer_count > ep->xfer_len)
 8000ad6:	6d6b      	ldr	r3, [r5, #84]	; 0x54
 8000ad8:	6d2e      	ldr	r6, [r5, #80]	; 0x50
 8000ada:	42b3      	cmp	r3, r6
 8000adc:	d83e      	bhi.n	8000b5c <HAL_PCD_IRQHandler+0x4dc>
  len = ep->xfer_len - ep->xfer_count;
 8000ade:	1af6      	subs	r6, r6, r3
  len32b = (len + 3U) / 4U;
 8000ae0:	6c6b      	ldr	r3, [r5, #68]	; 0x44
  USB_OTG_GlobalTypeDef *USBx = hpcd->Instance;
 8000ae2:	6822      	ldr	r2, [r4, #0]
 8000ae4:	9204      	str	r2, [sp, #16]
  len32b = (len + 3U) / 4U;
 8000ae6:	429e      	cmp	r6, r3
 8000ae8:	bf28      	it	cs
 8000aea:	461e      	movcs	r6, r3
  while (((USBx_INEP(epnum)->DTXFSTS & USB_OTG_DTXFSTS_INEPTFSAV) >= len32b) &&
 8000aec:	f502 6310 	add.w	r3, r2, #2304	; 0x900
  len32b = (len + 3U) / 4U;
 8000af0:	3603      	adds	r6, #3
  while (((USBx_INEP(epnum)->DTXFSTS & USB_OTG_DTXFSTS_INEPTFSAV) >= len32b) &&
 8000af2:	eb03 1348 	add.w	r3, r3, r8, lsl #5
  len32b = (len + 3U) / 4U;
 8000af6:	08b6      	lsrs	r6, r6, #2
  while (((USBx_INEP(epnum)->DTXFSTS & USB_OTG_DTXFSTS_INEPTFSAV) >= len32b) &&
 8000af8:	9305      	str	r3, [sp, #20]
 8000afa:	9b05      	ldr	r3, [sp, #20]
 8000afc:	6d2f      	ldr	r7, [r5, #80]	; 0x50
 8000afe:	699b      	ldr	r3, [r3, #24]
 8000b00:	b29b      	uxth	r3, r3
 8000b02:	42b3      	cmp	r3, r6
 8000b04:	6d6b      	ldr	r3, [r5, #84]	; 0x54
 8000b06:	d327      	bcc.n	8000b58 <HAL_PCD_IRQHandler+0x4d8>
 8000b08:	429f      	cmp	r7, r3
 8000b0a:	d925      	bls.n	8000b58 <HAL_PCD_IRQHandler+0x4d8>
         (ep->xfer_count < ep->xfer_len) && (ep->xfer_len != 0U))
 8000b0c:	b977      	cbnz	r7, 8000b2c <HAL_PCD_IRQHandler+0x4ac>
    USBx_DEVICE->DIEPEMPMSK &= ~fifoemptymsk;
 8000b0e:	9b04      	ldr	r3, [sp, #16]
    fifoemptymsk = (uint32_t)(0x1UL << (epnum & EP_ADDR_MSK));
 8000b10:	f008 020f 	and.w	r2, r8, #15
    USBx_DEVICE->DIEPEMPMSK &= ~fifoemptymsk;
 8000b14:	f503 6b00 	add.w	fp, r3, #2048	; 0x800
    fifoemptymsk = (uint32_t)(0x1UL << (epnum & EP_ADDR_MSK));
 8000b18:	2101      	movs	r1, #1
    USBx_DEVICE->DIEPEMPMSK &= ~fifoemptymsk;
 8000b1a:	f8d3 3834 	ldr.w	r3, [r3, #2100]	; 0x834
    fifoemptymsk = (uint32_t)(0x1UL << (epnum & EP_ADDR_MSK));
 8000b1e:	fa01 f202 	lsl.w	r2, r1, r2
    USBx_DEVICE->DIEPEMPMSK &= ~fifoemptymsk;
 8000b22:	ea23 0302 	bic.w	r3, r3, r2
 8000b26:	f8cb 3034 	str.w	r3, [fp, #52]	; 0x34
 8000b2a:	e017      	b.n	8000b5c <HAL_PCD_IRQHandler+0x4dc>
    len = ep->xfer_len - ep->xfer_count;
 8000b2c:	1aff      	subs	r7, r7, r3
 8000b2e:	6c6b      	ldr	r3, [r5, #68]	; 0x44
    (void)USB_WritePacket(USBx, ep->xfer_buff, (uint8_t)epnum, (uint16_t)len,
 8000b30:	9804      	ldr	r0, [sp, #16]
 8000b32:	429f      	cmp	r7, r3
 8000b34:	bf28      	it	cs
 8000b36:	461f      	movcs	r7, r3
 8000b38:	7c23      	ldrb	r3, [r4, #16]
 8000b3a:	9300      	str	r3, [sp, #0]
 8000b3c:	465a      	mov	r2, fp
 8000b3e:	b2bb      	uxth	r3, r7
 8000b40:	6ca9      	ldr	r1, [r5, #72]	; 0x48
 8000b42:	f000 fe4f 	bl	80017e4 <USB_WritePacket>
    ep->xfer_buff  += len;
 8000b46:	6cab      	ldr	r3, [r5, #72]	; 0x48
 8000b48:	443b      	add	r3, r7
 8000b4a:	64ab      	str	r3, [r5, #72]	; 0x48
    ep->xfer_count += len;
 8000b4c:	6d6b      	ldr	r3, [r5, #84]	; 0x54
    len32b = (len + 3U) / 4U;
 8000b4e:	1cfe      	adds	r6, r7, #3
    ep->xfer_count += len;
 8000b50:	441f      	add	r7, r3
    len32b = (len + 3U) / 4U;
 8000b52:	08b6      	lsrs	r6, r6, #2
    ep->xfer_count += len;
 8000b54:	656f      	str	r7, [r5, #84]	; 0x54
 8000b56:	e7d0      	b.n	8000afa <HAL_PCD_IRQHandler+0x47a>
  if (ep->xfer_len <= ep->xfer_count)
 8000b58:	429f      	cmp	r7, r3
 8000b5a:	d9d8      	bls.n	8000b0e <HAL_PCD_IRQHandler+0x48e>
        ep_intr >>= 1U;
 8000b5c:	9b03      	ldr	r3, [sp, #12]
 8000b5e:	085b      	lsrs	r3, r3, #1
        epnum++;
 8000b60:	f108 0801 	add.w	r8, r8, #1
        ep_intr >>= 1U;
 8000b64:	9303      	str	r3, [sp, #12]
 8000b66:	351c      	adds	r5, #28
 8000b68:	f109 0920 	add.w	r9, r9, #32
 8000b6c:	e5eb      	b.n	8000746 <HAL_PCD_IRQHandler+0xc6>
        HAL_PCD_ResumeCallback(hpcd);
 8000b6e:	4620      	mov	r0, r4
 8000b70:	f002 f848 	bl	8002c04 <HAL_PCD_ResumeCallback>
 8000b74:	e601      	b.n	800077a <HAL_PCD_IRQHandler+0xfa>
        USBx_INEP(i)->DIEPINT = 0xFB7FU;
 8000b76:	6099      	str	r1, [r3, #8]
        USBx_INEP(i)->DIEPCTL &= ~USB_OTG_DIEPCTL_STALL;
 8000b78:	681a      	ldr	r2, [r3, #0]
 8000b7a:	f422 1200 	bic.w	r2, r2, #2097152	; 0x200000
 8000b7e:	601a      	str	r2, [r3, #0]
        USBx_INEP(i)->DIEPCTL |= USB_OTG_DIEPCTL_SNAK;
 8000b80:	681a      	ldr	r2, [r3, #0]
 8000b82:	f042 6200 	orr.w	r2, r2, #134217728	; 0x8000000
 8000b86:	601a      	str	r2, [r3, #0]
        USBx_OUTEP(i)->DOEPINT = 0xFB7FU;
 8000b88:	f8c3 1208 	str.w	r1, [r3, #520]	; 0x208
        USBx_OUTEP(i)->DOEPCTL &= ~USB_OTG_DOEPCTL_STALL;
 8000b8c:	f8d3 2200 	ldr.w	r2, [r3, #512]	; 0x200
 8000b90:	f422 1200 	bic.w	r2, r2, #2097152	; 0x200000
 8000b94:	f8c3 2200 	str.w	r2, [r3, #512]	; 0x200
        USBx_OUTEP(i)->DOEPCTL |= USB_OTG_DOEPCTL_SNAK;
 8000b98:	f8d3 2200 	ldr.w	r2, [r3, #512]	; 0x200
 8000b9c:	f042 6200 	orr.w	r2, r2, #134217728	; 0x8000000
 8000ba0:	f8c3 2200 	str.w	r2, [r3, #512]	; 0x200
      for (i = 0U; i < hpcd->Init.dev_endpoints; i++)
 8000ba4:	9a02      	ldr	r2, [sp, #8]
 8000ba6:	3201      	adds	r2, #1
 8000ba8:	9202      	str	r2, [sp, #8]
 8000baa:	3320      	adds	r3, #32
 8000bac:	e60f      	b.n	80007ce <HAL_PCD_IRQHandler+0x14e>
        USBx_DEVICE->DOEPMSK |= USB_OTG_DOEPMSK_STUPM |
 8000bae:	696b      	ldr	r3, [r5, #20]
 8000bb0:	f443 5300 	orr.w	r3, r3, #8192	; 0x2000
 8000bb4:	f043 032b 	orr.w	r3, r3, #43	; 0x2b
 8000bb8:	616b      	str	r3, [r5, #20]
        USBx_DEVICE->DIEPMSK |= USB_OTG_DIEPMSK_TOM |
 8000bba:	692b      	ldr	r3, [r5, #16]
 8000bbc:	f043 030b 	orr.w	r3, r3, #11
 8000bc0:	612b      	str	r3, [r5, #16]
 8000bc2:	e61a      	b.n	80007fa <HAL_PCD_IRQHandler+0x17a>
 8000bc4:	4f54300a 	.word	0x4f54300a
 8000bc8:	4f54310a 	.word	0x4f54310a

08000bcc <HAL_PCD_SetAddress>:
  __HAL_LOCK(hpcd);
 8000bcc:	f890 23bc 	ldrb.w	r2, [r0, #956]	; 0x3bc
 8000bd0:	2a01      	cmp	r2, #1
{
 8000bd2:	b510      	push	{r4, lr}
 8000bd4:	4604      	mov	r4, r0
  __HAL_LOCK(hpcd);
 8000bd6:	d00b      	beq.n	8000bf0 <HAL_PCD_SetAddress+0x24>
 8000bd8:	2201      	movs	r2, #1
 8000bda:	f880 23bc 	strb.w	r2, [r0, #956]	; 0x3bc
  hpcd->USB_Address = address;
 8000bde:	f884 1038 	strb.w	r1, [r4, #56]	; 0x38
  (void)USB_SetDevAddress(hpcd->Instance, address);
 8000be2:	6800      	ldr	r0, [r0, #0]
 8000be4:	f000 ff66 	bl	8001ab4 <USB_SetDevAddress>
  __HAL_UNLOCK(hpcd);
 8000be8:	2000      	movs	r0, #0
 8000bea:	f884 03bc 	strb.w	r0, [r4, #956]	; 0x3bc
  return HAL_OK;
 8000bee:	bd10      	pop	{r4, pc}
  __HAL_LOCK(hpcd);
 8000bf0:	2002      	movs	r0, #2
}
 8000bf2:	bd10      	pop	{r4, pc}

08000bf4 <HAL_PCD_EP_Open>:
{
 8000bf4:	b570      	push	{r4, r5, r6, lr}
 8000bf6:	4604      	mov	r4, r0
 8000bf8:	f001 000f 	and.w	r0, r1, #15
  if ((ep_addr & 0x80U) == 0x80U)
 8000bfc:	f011 0f80 	tst.w	r1, #128	; 0x80
 8000c00:	f04f 061c 	mov.w	r6, #28
 8000c04:	b2c5      	uxtb	r5, r0
    ep = &hpcd->IN_ep[ep_addr & EP_ADDR_MSK];
 8000c06:	fb06 4105 	mla	r1, r6, r5, r4
    ep->is_in = 1U;
 8000c0a:	bf15      	itete	ne
 8000c0c:	fb06 4505 	mlane	r5, r6, r5, r4
    ep->is_in = 0U;
 8000c10:	fb06 4505 	mlaeq	r5, r6, r5, r4
    ep = &hpcd->IN_ep[ep_addr & EP_ADDR_MSK];
 8000c14:	313c      	addne	r1, #60	; 0x3c
    ep = &hpcd->OUT_ep[ep_addr & EP_ADDR_MSK];
 8000c16:	f501 71fe 	addeq.w	r1, r1, #508	; 0x1fc
    ep->is_in = 1U;
 8000c1a:	bf15      	itete	ne
 8000c1c:	2601      	movne	r6, #1
    ep->is_in = 0U;
 8000c1e:	2600      	moveq	r6, #0
    ep->is_in = 1U;
 8000c20:	f885 603d 	strbne.w	r6, [r5, #61]	; 0x3d
    ep->is_in = 0U;
 8000c24:	f885 61fd 	strbeq.w	r6, [r5, #509]	; 0x1fd
  ep->maxpacket = ep_mps;
 8000c28:	608a      	str	r2, [r1, #8]
  if (ep->is_in != 0U)
 8000c2a:	784a      	ldrb	r2, [r1, #1]
  ep->type = ep_type;
 8000c2c:	70cb      	strb	r3, [r1, #3]
  ep->num = ep_addr & EP_ADDR_MSK;
 8000c2e:	b2c0      	uxtb	r0, r0
 8000c30:	7008      	strb	r0, [r1, #0]
  if (ep->is_in != 0U)
 8000c32:	b102      	cbz	r2, 8000c36 <HAL_PCD_EP_Open+0x42>
    ep->tx_fifo_num = ep->num;
 8000c34:	80c8      	strh	r0, [r1, #6]
  if (ep_type == EP_TYPE_BULK)
 8000c36:	2b02      	cmp	r3, #2
    ep->data_pid_start = 0U;
 8000c38:	bf04      	itt	eq
 8000c3a:	2300      	moveq	r3, #0
 8000c3c:	710b      	strbeq	r3, [r1, #4]
  __HAL_LOCK(hpcd);
 8000c3e:	f894 33bc 	ldrb.w	r3, [r4, #956]	; 0x3bc
 8000c42:	2b01      	cmp	r3, #1
 8000c44:	d009      	beq.n	8000c5a <HAL_PCD_EP_Open+0x66>
 8000c46:	2301      	movs	r3, #1
 8000c48:	f884 33bc 	strb.w	r3, [r4, #956]	; 0x3bc
  (void)USB_ActivateEndpoint(hpcd->Instance, ep);
 8000c4c:	6820      	ldr	r0, [r4, #0]
 8000c4e:	f000 fca8 	bl	80015a2 <USB_ActivateEndpoint>
  __HAL_UNLOCK(hpcd);
 8000c52:	2000      	movs	r0, #0
 8000c54:	f884 03bc 	strb.w	r0, [r4, #956]	; 0x3bc
  return ret;
 8000c58:	bd70      	pop	{r4, r5, r6, pc}
  __HAL_LOCK(hpcd);
 8000c5a:	2002      	movs	r0, #2
}
 8000c5c:	bd70      	pop	{r4, r5, r6, pc}

08000c5e <HAL_PCD_EP_Close>:
{
 8000c5e:	f001 030f 	and.w	r3, r1, #15
 8000c62:	b2da      	uxtb	r2, r3
 8000c64:	b510      	push	{r4, lr}
 8000c66:	4604      	mov	r4, r0
 8000c68:	201c      	movs	r0, #28
  if ((ep_addr & 0x80U) == 0x80U)
 8000c6a:	f011 0f80 	tst.w	r1, #128	; 0x80
    ep = &hpcd->IN_ep[ep_addr & EP_ADDR_MSK];
 8000c6e:	fb00 4102 	mla	r1, r0, r2, r4
 8000c72:	bf19      	ittee	ne
 8000c74:	313c      	addne	r1, #60	; 0x3c
    ep->is_in = 1U;
 8000c76:	fb00 4202 	mlane	r2, r0, r2, r4
    ep->is_in = 0U;
 8000c7a:	fb00 4202 	mlaeq	r2, r0, r2, r4
    ep = &hpcd->OUT_ep[ep_addr & EP_ADDR_MSK];
 8000c7e:	f501 71fe 	addeq.w	r1, r1, #508	; 0x1fc
    ep->is_in = 1U;
 8000c82:	bf15      	itete	ne
 8000c84:	2001      	movne	r0, #1
    ep->is_in = 0U;
 8000c86:	2000      	moveq	r0, #0
    ep->is_in = 1U;
 8000c88:	f882 003d 	strbne.w	r0, [r2, #61]	; 0x3d
    ep->is_in = 0U;
 8000c8c:	f882 01fd 	strbeq.w	r0, [r2, #509]	; 0x1fd
  ep->num   = ep_addr & EP_ADDR_MSK;
 8000c90:	700b      	strb	r3, [r1, #0]
  __HAL_LOCK(hpcd);
 8000c92:	f894 33bc 	ldrb.w	r3, [r4, #956]	; 0x3bc
 8000c96:	2b01      	cmp	r3, #1
 8000c98:	d009      	beq.n	8000cae <HAL_PCD_EP_Close+0x50>
 8000c9a:	2301      	movs	r3, #1
 8000c9c:	f884 33bc 	strb.w	r3, [r4, #956]	; 0x3bc
  (void)USB_DeactivateEndpoint(hpcd->Instance, ep);
 8000ca0:	6820      	ldr	r0, [r4, #0]
 8000ca2:	f000 fcc1 	bl	8001628 <USB_DeactivateEndpoint>
  __HAL_UNLOCK(hpcd);
 8000ca6:	2000      	movs	r0, #0
 8000ca8:	f884 03bc 	strb.w	r0, [r4, #956]	; 0x3bc
  return HAL_OK;
 8000cac:	bd10      	pop	{r4, pc}
  __HAL_LOCK(hpcd);
 8000cae:	2002      	movs	r0, #2
}
 8000cb0:	bd10      	pop	{r4, pc}

08000cb2 <HAL_PCD_EP_Receive>:
{
 8000cb2:	b538      	push	{r3, r4, r5, lr}
 8000cb4:	f001 050f 	and.w	r5, r1, #15
  ep = &hpcd->OUT_ep[ep_addr & EP_ADDR_MSK];
 8000cb8:	241c      	movs	r4, #28
 8000cba:	fb04 0105 	mla	r1, r4, r5, r0
  ep->xfer_buff = pBuf;
 8000cbe:	fb04 0405 	mla	r4, r4, r5, r0
  ep = &hpcd->OUT_ep[ep_addr & EP_ADDR_MSK];
 8000cc2:	f501 71fe 	add.w	r1, r1, #508	; 0x1fc
  ep->xfer_len = len;
 8000cc6:	f8c4 3210 	str.w	r3, [r4, #528]	; 0x210
  ep->xfer_count = 0U;
 8000cca:	2300      	movs	r3, #0
  ep->xfer_buff = pBuf;
 8000ccc:	f8c4 2208 	str.w	r2, [r4, #520]	; 0x208
  ep->xfer_count = 0U;
 8000cd0:	f8c4 3214 	str.w	r3, [r4, #532]	; 0x214
  ep->is_in = 0U;
 8000cd4:	f884 31fd 	strb.w	r3, [r4, #509]	; 0x1fd
  ep->num = ep_addr & EP_ADDR_MSK;
 8000cd8:	f884 51fc 	strb.w	r5, [r4, #508]	; 0x1fc
  if (hpcd->Init.dma_enable == 1U)
 8000cdc:	6903      	ldr	r3, [r0, #16]
    (void)USB_EP0StartXfer(hpcd->Instance, ep, (uint8_t)hpcd->Init.dma_enable);
 8000cde:	6800      	ldr	r0, [r0, #0]
  if (hpcd->Init.dma_enable == 1U)
 8000ce0:	2b01      	cmp	r3, #1
    ep->dma_addr = (uint32_t)pBuf;
 8000ce2:	bf08      	it	eq
 8000ce4:	f8c4 220c 	streq.w	r2, [r4, #524]	; 0x20c
 8000ce8:	b2da      	uxtb	r2, r3
  if ((ep_addr & EP_ADDR_MSK) == 0U)
 8000cea:	b91d      	cbnz	r5, 8000cf4 <HAL_PCD_EP_Receive+0x42>
    (void)USB_EP0StartXfer(hpcd->Instance, ep, (uint8_t)hpcd->Init.dma_enable);
 8000cec:	f000 fcf0 	bl	80016d0 <USB_EP0StartXfer>
}
 8000cf0:	2000      	movs	r0, #0
 8000cf2:	bd38      	pop	{r3, r4, r5, pc}
    (void)USB_EPStartXfer(hpcd->Instance, ep, (uint8_t)hpcd->Init.dma_enable);
 8000cf4:	f000 fd8a 	bl	800180c <USB_EPStartXfer>
 8000cf8:	e7fa      	b.n	8000cf0 <HAL_PCD_EP_Receive+0x3e>

08000cfa <HAL_PCD_EP_GetRxCount>:
  return hpcd->OUT_ep[ep_addr & EP_ADDR_MSK].xfer_count;
 8000cfa:	231c      	movs	r3, #28
 8000cfc:	f001 010f 	and.w	r1, r1, #15
 8000d00:	fb03 0101 	mla	r1, r3, r1, r0
}
 8000d04:	f8d1 0214 	ldr.w	r0, [r1, #532]	; 0x214
 8000d08:	4770      	bx	lr

08000d0a <HAL_PCD_EP_Transmit>:
{
 8000d0a:	b538      	push	{r3, r4, r5, lr}
 8000d0c:	f001 050f 	and.w	r5, r1, #15
  ep = &hpcd->IN_ep[ep_addr & EP_ADDR_MSK];
 8000d10:	241c      	movs	r4, #28
 8000d12:	fb04 0105 	mla	r1, r4, r5, r0
  ep->xfer_buff = pBuf;
 8000d16:	fb04 0405 	mla	r4, r4, r5, r0
  ep = &hpcd->IN_ep[ep_addr & EP_ADDR_MSK];
 8000d1a:	313c      	adds	r1, #60	; 0x3c
  ep->xfer_len = len;
 8000d1c:	6523      	str	r3, [r4, #80]	; 0x50
  ep->xfer_count = 0U;
 8000d1e:	2300      	movs	r3, #0
 8000d20:	6563      	str	r3, [r4, #84]	; 0x54
  ep->is_in = 1U;
 8000d22:	2301      	movs	r3, #1
  ep->xfer_buff = pBuf;
 8000d24:	64a2      	str	r2, [r4, #72]	; 0x48
  ep->is_in = 1U;
 8000d26:	f884 303d 	strb.w	r3, [r4, #61]	; 0x3d
  ep->num = ep_addr & EP_ADDR_MSK;
 8000d2a:	f884 503c 	strb.w	r5, [r4, #60]	; 0x3c
  if (hpcd->Init.dma_enable == 1U)
 8000d2e:	6903      	ldr	r3, [r0, #16]
    (void)USB_EP0StartXfer(hpcd->Instance, ep, (uint8_t)hpcd->Init.dma_enable);
 8000d30:	6800      	ldr	r0, [r0, #0]
  if (hpcd->Init.dma_enable == 1U)
 8000d32:	2b01      	cmp	r3, #1
    ep->dma_addr = (uint32_t)pBuf;
 8000d34:	bf08      	it	eq
 8000d36:	64e2      	streq	r2, [r4, #76]	; 0x4c
 8000d38:	b2da      	uxtb	r2, r3
  if ((ep_addr & EP_ADDR_MSK) == 0U)
 8000d3a:	b91d      	cbnz	r5, 8000d44 <HAL_PCD_EP_Transmit+0x3a>
    (void)USB_EP0StartXfer(hpcd->Instance, ep, (uint8_t)hpcd->Init.dma_enable);
 8000d3c:	f000 fcc8 	bl	80016d0 <USB_EP0StartXfer>
}
 8000d40:	2000      	movs	r0, #0
 8000d42:	bd38      	pop	{r3, r4, r5, pc}
    (void)USB_EPStartXfer(hpcd->Instance, ep, (uint8_t)hpcd->Init.dma_enable);
 8000d44:	f000 fd62 	bl	800180c <USB_EPStartXfer>
 8000d48:	e7fa      	b.n	8000d40 <HAL_PCD_EP_Transmit+0x36>

08000d4a <HAL_PCD_EP_SetStall>:
{
 8000d4a:	b538      	push	{r3, r4, r5, lr}
  if (((uint32_t)ep_addr & EP_ADDR_MSK) > hpcd->Init.dev_endpoints)
 8000d4c:	6843      	ldr	r3, [r0, #4]
 8000d4e:	f001 050f 	and.w	r5, r1, #15
 8000d52:	429d      	cmp	r5, r3
{
 8000d54:	4604      	mov	r4, r0
  if (((uint32_t)ep_addr & EP_ADDR_MSK) > hpcd->Init.dev_endpoints)
 8000d56:	d82e      	bhi.n	8000db6 <HAL_PCD_EP_SetStall+0x6c>
  if ((0x80U & ep_addr) == 0x80U)
 8000d58:	f011 0f80 	tst.w	r1, #128	; 0x80
 8000d5c:	f04f 021c 	mov.w	r2, #28
 8000d60:	d01f      	beq.n	8000da2 <HAL_PCD_EP_SetStall+0x58>
    ep->is_in = 1U;
 8000d62:	fb02 0105 	mla	r1, r2, r5, r0
    ep = &hpcd->IN_ep[ep_addr & EP_ADDR_MSK];
 8000d66:	fb02 0305 	mla	r3, r2, r5, r0
    ep->is_in = 1U;
 8000d6a:	2201      	movs	r2, #1
    ep = &hpcd->IN_ep[ep_addr & EP_ADDR_MSK];
 8000d6c:	333c      	adds	r3, #60	; 0x3c
    ep->is_in = 1U;
 8000d6e:	f881 203d 	strb.w	r2, [r1, #61]	; 0x3d
  ep->is_stall = 1U;
 8000d72:	2201      	movs	r2, #1
 8000d74:	709a      	strb	r2, [r3, #2]
  ep->num = ep_addr & EP_ADDR_MSK;
 8000d76:	701d      	strb	r5, [r3, #0]
  __HAL_LOCK(hpcd);
 8000d78:	f894 13bc 	ldrb.w	r1, [r4, #956]	; 0x3bc
 8000d7c:	4291      	cmp	r1, r2
 8000d7e:	d01c      	beq.n	8000dba <HAL_PCD_EP_SetStall+0x70>
 8000d80:	f884 23bc 	strb.w	r2, [r4, #956]	; 0x3bc
  (void)USB_EPSetStall(hpcd->Instance, ep);
 8000d84:	4619      	mov	r1, r3
 8000d86:	6820      	ldr	r0, [r4, #0]
 8000d88:	f000 fe3c 	bl	8001a04 <USB_EPSetStall>
  if ((ep_addr & EP_ADDR_MSK) == 0U)
 8000d8c:	b92d      	cbnz	r5, 8000d9a <HAL_PCD_EP_SetStall+0x50>
    (void)USB_EP0_OutStart(hpcd->Instance, (uint8_t)hpcd->Init.dma_enable, (uint8_t *)hpcd->Setup);
 8000d8e:	f504 7271 	add.w	r2, r4, #964	; 0x3c4
 8000d92:	7c21      	ldrb	r1, [r4, #16]
 8000d94:	6820      	ldr	r0, [r4, #0]
 8000d96:	f000 fef9 	bl	8001b8c <USB_EP0_OutStart>
  __HAL_UNLOCK(hpcd);
 8000d9a:	2000      	movs	r0, #0
 8000d9c:	f884 03bc 	strb.w	r0, [r4, #956]	; 0x3bc
  return HAL_OK;
 8000da0:	bd38      	pop	{r3, r4, r5, pc}
    ep = &hpcd->OUT_ep[ep_addr];
 8000da2:	fb02 0301 	mla	r3, r2, r1, r0
    ep->is_in = 0U;
 8000da6:	fb02 0101 	mla	r1, r2, r1, r0
 8000daa:	2200      	movs	r2, #0
    ep = &hpcd->OUT_ep[ep_addr];
 8000dac:	f503 73fe 	add.w	r3, r3, #508	; 0x1fc
    ep->is_in = 0U;
 8000db0:	f881 21fd 	strb.w	r2, [r1, #509]	; 0x1fd
 8000db4:	e7dd      	b.n	8000d72 <HAL_PCD_EP_SetStall+0x28>
    return HAL_ERROR;
 8000db6:	2001      	movs	r0, #1
 8000db8:	bd38      	pop	{r3, r4, r5, pc}
  __HAL_LOCK(hpcd);
 8000dba:	2002      	movs	r0, #2
}
 8000dbc:	bd38      	pop	{r3, r4, r5, pc}

08000dbe <HAL_PCD_EP_ClrStall>:
{
 8000dbe:	b538      	push	{r3, r4, r5, lr}
  if (((uint32_t)ep_addr & 0x0FU) > hpcd->Init.dev_endpoints)
 8000dc0:	6843      	ldr	r3, [r0, #4]
 8000dc2:	f001 020f 	and.w	r2, r1, #15
 8000dc6:	429a      	cmp	r2, r3
{
 8000dc8:	4604      	mov	r4, r0
  if (((uint32_t)ep_addr & 0x0FU) > hpcd->Init.dev_endpoints)
 8000dca:	d826      	bhi.n	8000e1a <HAL_PCD_EP_ClrStall+0x5c>
 8000dcc:	231c      	movs	r3, #28
  if ((0x80U & ep_addr) == 0x80U)
 8000dce:	f011 0f80 	tst.w	r1, #128	; 0x80
    ep = &hpcd->IN_ep[ep_addr & EP_ADDR_MSK];
 8000dd2:	fb03 0102 	mla	r1, r3, r2, r0
 8000dd6:	bf19      	ittee	ne
 8000dd8:	313c      	addne	r1, #60	; 0x3c
    ep->is_in = 1U;
 8000dda:	fb03 0302 	mlane	r3, r3, r2, r0
    ep = &hpcd->OUT_ep[ep_addr & EP_ADDR_MSK];
 8000dde:	f501 71fe 	addeq.w	r1, r1, #508	; 0x1fc
    ep->is_in = 0U;
 8000de2:	fb03 4302 	mlaeq	r3, r3, r2, r4
    ep->is_in = 1U;
 8000de6:	bf14      	ite	ne
 8000de8:	2001      	movne	r0, #1
    ep->is_in = 0U;
 8000dea:	2000      	moveq	r0, #0
  ep->is_stall = 0U;
 8000dec:	f04f 0500 	mov.w	r5, #0
    ep->is_in = 1U;
 8000df0:	bf14      	ite	ne
 8000df2:	f883 003d 	strbne.w	r0, [r3, #61]	; 0x3d
    ep->is_in = 0U;
 8000df6:	f883 01fd 	strbeq.w	r0, [r3, #509]	; 0x1fd
  ep->is_stall = 0U;
 8000dfa:	708d      	strb	r5, [r1, #2]
  ep->num = ep_addr & EP_ADDR_MSK;
 8000dfc:	700a      	strb	r2, [r1, #0]
  __HAL_LOCK(hpcd);
 8000dfe:	f894 33bc 	ldrb.w	r3, [r4, #956]	; 0x3bc
 8000e02:	2b01      	cmp	r3, #1
 8000e04:	d00b      	beq.n	8000e1e <HAL_PCD_EP_ClrStall+0x60>
 8000e06:	2301      	movs	r3, #1
 8000e08:	f884 33bc 	strb.w	r3, [r4, #956]	; 0x3bc
  (void)USB_EPClearStall(hpcd->Instance, ep);
 8000e0c:	6820      	ldr	r0, [r4, #0]
 8000e0e:	f000 fe26 	bl	8001a5e <USB_EPClearStall>
  __HAL_UNLOCK(hpcd);
 8000e12:	f884 53bc 	strb.w	r5, [r4, #956]	; 0x3bc
  return HAL_OK;
 8000e16:	4628      	mov	r0, r5
 8000e18:	bd38      	pop	{r3, r4, r5, pc}
    return HAL_ERROR;
 8000e1a:	2001      	movs	r0, #1
 8000e1c:	bd38      	pop	{r3, r4, r5, pc}
  __HAL_LOCK(hpcd);
 8000e1e:	2002      	movs	r0, #2
}
 8000e20:	bd38      	pop	{r3, r4, r5, pc}

08000e22 <HAL_PCDEx_SetTxFiFo>:
  * @param  fifo The number of Tx fifo
  * @param  size Fifo size
  * @retval HAL status
  */
HAL_StatusTypeDef HAL_PCDEx_SetTxFiFo(PCD_HandleTypeDef *hpcd, uint8_t fifo, uint16_t size)
{
 8000e22:	b570      	push	{r4, r5, r6, lr}
         --> Txn should be configured with the minimum space of 16 words
     The FIFO is used optimally when used TxFIFOs are allocated in the top
         of the FIFO.Ex: use EP1 and EP2 as IN instead of EP1 and EP3 as IN ones.
     When DMA is used 3n * FIFO locations should be reserved for internal DMA registers */

  Tx_Offset = hpcd->Instance->GRXFSIZ;
 8000e24:	6804      	ldr	r4, [r0, #0]
 8000e26:	6a63      	ldr	r3, [r4, #36]	; 0x24

  if (fifo == 0U)
 8000e28:	b921      	cbnz	r1, 8000e34 <HAL_PCDEx_SetTxFiFo+0x12>
  {
    hpcd->Instance->DIEPTXF0_HNPTXFSIZ = ((uint32_t)size << 16) | Tx_Offset;
 8000e2a:	ea43 4302 	orr.w	r3, r3, r2, lsl #16
 8000e2e:	62a3      	str	r3, [r4, #40]	; 0x28
    /* Multiply Tx_Size by 2 to get higher performance */
    hpcd->Instance->DIEPTXF[fifo - 1U] = ((uint32_t)size << 16) | Tx_Offset;
  }

  return HAL_OK;
}
 8000e30:	2000      	movs	r0, #0
 8000e32:	bd70      	pop	{r4, r5, r6, pc}
    Tx_Offset += (hpcd->Instance->DIEPTXF0_HNPTXFSIZ) >> 16;
 8000e34:	6aa0      	ldr	r0, [r4, #40]	; 0x28
    for (i = 0U; i < (fifo - 1U); i++)
 8000e36:	1e4d      	subs	r5, r1, #1
    Tx_Offset += (hpcd->Instance->DIEPTXF0_HNPTXFSIZ) >> 16;
 8000e38:	eb03 4310 	add.w	r3, r3, r0, lsr #16
    for (i = 0U; i < (fifo - 1U); i++)
 8000e3c:	2000      	movs	r0, #0
 8000e3e:	1c46      	adds	r6, r0, #1
 8000e40:	b2c0      	uxtb	r0, r0
 8000e42:	4285      	cmp	r5, r0
 8000e44:	d806      	bhi.n	8000e54 <HAL_PCDEx_SetTxFiFo+0x32>
    hpcd->Instance->DIEPTXF[fifo - 1U] = ((uint32_t)size << 16) | Tx_Offset;
 8000e46:	313f      	adds	r1, #63	; 0x3f
 8000e48:	eb04 0481 	add.w	r4, r4, r1, lsl #2
 8000e4c:	ea43 4302 	orr.w	r3, r3, r2, lsl #16
 8000e50:	6063      	str	r3, [r4, #4]
 8000e52:	e7ed      	b.n	8000e30 <HAL_PCDEx_SetTxFiFo+0xe>
      Tx_Offset += (hpcd->Instance->DIEPTXF[i] >> 16);
 8000e54:	3040      	adds	r0, #64	; 0x40
 8000e56:	eb04 0080 	add.w	r0, r4, r0, lsl #2
 8000e5a:	6840      	ldr	r0, [r0, #4]
 8000e5c:	eb03 4310 	add.w	r3, r3, r0, lsr #16
 8000e60:	4630      	mov	r0, r6
 8000e62:	e7ec      	b.n	8000e3e <HAL_PCDEx_SetTxFiFo+0x1c>

08000e64 <HAL_PCDEx_SetRxFiFo>:
  * @param  size Size of Rx fifo
  * @retval HAL status
  */
HAL_StatusTypeDef HAL_PCDEx_SetRxFiFo(PCD_HandleTypeDef *hpcd, uint16_t size)
{
  hpcd->Instance->GRXFSIZ = size;
 8000e64:	6803      	ldr	r3, [r0, #0]

  return HAL_OK;
}
 8000e66:	2000      	movs	r0, #0
  hpcd->Instance->GRXFSIZ = size;
 8000e68:	6259      	str	r1, [r3, #36]	; 0x24
}
 8000e6a:	4770      	bx	lr

08000e6c <HAL_PCDEx_LPM_Callback>:
 8000e6c:	4770      	bx	lr
	...

08000e70 <HAL_RCC_GetHCLKFreq>:
  * @retval HCLK frequency
  */
uint32_t HAL_RCC_GetHCLKFreq(void)
{
  return SystemCoreClock;
}
 8000e70:	4b01      	ldr	r3, [pc, #4]	; (8000e78 <HAL_RCC_GetHCLKFreq+0x8>)
 8000e72:	6818      	ldr	r0, [r3, #0]
 8000e74:	4770      	bx	lr
 8000e76:	bf00      	nop
 8000e78:	20000120 	.word	0x20000120

08000e7c <HAL_TIM_Encoder_Start>:
  *            @arg TIM_CHANNEL_2: TIM Channel 2 selected
  *            @arg TIM_CHANNEL_ALL: TIM Channel 1 and TIM Channel 2 are selected
  * @retval HAL status
  */
HAL_StatusTypeDef HAL_TIM_Encoder_Start(TIM_HandleTypeDef *htim, uint32_t Channel)
{
 8000e7c:	6803      	ldr	r3, [r0, #0]
  /* Check the parameters */
  assert_param(IS_TIM_CC2_INSTANCE(htim->Instance));

  /* Enable the encoder interface channels */
  switch (Channel)
 8000e7e:	b189      	cbz	r1, 8000ea4 <HAL_TIM_Encoder_Start+0x28>
 8000e80:	2904      	cmp	r1, #4
 8000e82:	d007      	beq.n	8000e94 <HAL_TIM_Encoder_Start+0x18>
  assert_param(IS_TIM_CHANNELS(Channel));

  tmp = TIM_CCER_CC1E << (Channel & 0x1FU); /* 0x1FU = 31 bits max shift */

  /* Reset the CCxE Bit */
  TIMx->CCER &= ~tmp;
 8000e84:	6a1a      	ldr	r2, [r3, #32]
 8000e86:	f022 0201 	bic.w	r2, r2, #1
 8000e8a:	621a      	str	r2, [r3, #32]

  /* Set or reset the CCxE Bit */
  TIMx->CCER |= (uint32_t)(ChannelState << (Channel & 0x1FU)); /* 0x1FU = 31 bits max shift */
 8000e8c:	6a1a      	ldr	r2, [r3, #32]
 8000e8e:	f042 0201 	orr.w	r2, r2, #1
 8000e92:	621a      	str	r2, [r3, #32]
  TIMx->CCER &= ~tmp;
 8000e94:	6a1a      	ldr	r2, [r3, #32]
 8000e96:	f022 0210 	bic.w	r2, r2, #16
 8000e9a:	621a      	str	r2, [r3, #32]
  TIMx->CCER |= (uint32_t)(ChannelState << (Channel & 0x1FU)); /* 0x1FU = 31 bits max shift */
 8000e9c:	6a1a      	ldr	r2, [r3, #32]
 8000e9e:	f042 0210 	orr.w	r2, r2, #16
 8000ea2:	e006      	b.n	8000eb2 <HAL_TIM_Encoder_Start+0x36>
  TIMx->CCER &= ~tmp;
 8000ea4:	6a1a      	ldr	r2, [r3, #32]
 8000ea6:	f022 0201 	bic.w	r2, r2, #1
 8000eaa:	621a      	str	r2, [r3, #32]
  TIMx->CCER |= (uint32_t)(ChannelState << (Channel & 0x1FU)); /* 0x1FU = 31 bits max shift */
 8000eac:	6a1a      	ldr	r2, [r3, #32]
 8000eae:	f042 0201 	orr.w	r2, r2, #1
 8000eb2:	621a      	str	r2, [r3, #32]
  __HAL_TIM_ENABLE(htim);
 8000eb4:	681a      	ldr	r2, [r3, #0]
 8000eb6:	f042 0201 	orr.w	r2, r2, #1
 8000eba:	601a      	str	r2, [r3, #0]
}
 8000ebc:	2000      	movs	r0, #0
 8000ebe:	4770      	bx	lr

08000ec0 <TIM_Base_SetConfig>:
  if (IS_TIM_COUNTER_MODE_SELECT_INSTANCE(TIMx))
 8000ec0:	4a30      	ldr	r2, [pc, #192]	; (8000f84 <TIM_Base_SetConfig+0xc4>)
  tmpcr1 = TIMx->CR1;
 8000ec2:	6803      	ldr	r3, [r0, #0]
  if (IS_TIM_COUNTER_MODE_SELECT_INSTANCE(TIMx))
 8000ec4:	4290      	cmp	r0, r2
 8000ec6:	d012      	beq.n	8000eee <TIM_Base_SetConfig+0x2e>
 8000ec8:	f1b0 4f80 	cmp.w	r0, #1073741824	; 0x40000000
 8000ecc:	d00f      	beq.n	8000eee <TIM_Base_SetConfig+0x2e>
 8000ece:	f5a2 427c 	sub.w	r2, r2, #64512	; 0xfc00
 8000ed2:	4290      	cmp	r0, r2
 8000ed4:	d00b      	beq.n	8000eee <TIM_Base_SetConfig+0x2e>
 8000ed6:	f502 6280 	add.w	r2, r2, #1024	; 0x400
 8000eda:	4290      	cmp	r0, r2
 8000edc:	d007      	beq.n	8000eee <TIM_Base_SetConfig+0x2e>
 8000ede:	f502 6280 	add.w	r2, r2, #1024	; 0x400
 8000ee2:	4290      	cmp	r0, r2
 8000ee4:	d003      	beq.n	8000eee <TIM_Base_SetConfig+0x2e>
 8000ee6:	f502 4278 	add.w	r2, r2, #63488	; 0xf800
 8000eea:	4290      	cmp	r0, r2
 8000eec:	d119      	bne.n	8000f22 <TIM_Base_SetConfig+0x62>
    tmpcr1 |= Structure->CounterMode;
 8000eee:	684a      	ldr	r2, [r1, #4]
    tmpcr1 &= ~(TIM_CR1_DIR | TIM_CR1_CMS);
 8000ef0:	f023 0370 	bic.w	r3, r3, #112	; 0x70
    tmpcr1 |= Structure->CounterMode;
 8000ef4:	4313      	orrs	r3, r2
  if (IS_TIM_CLOCK_DIVISION_INSTANCE(TIMx))
 8000ef6:	4a23      	ldr	r2, [pc, #140]	; (8000f84 <TIM_Base_SetConfig+0xc4>)
 8000ef8:	4290      	cmp	r0, r2
 8000efa:	d029      	beq.n	8000f50 <TIM_Base_SetConfig+0x90>
 8000efc:	f1b0 4f80 	cmp.w	r0, #1073741824	; 0x40000000
 8000f00:	d026      	beq.n	8000f50 <TIM_Base_SetConfig+0x90>
 8000f02:	f5a2 427c 	sub.w	r2, r2, #64512	; 0xfc00
 8000f06:	4290      	cmp	r0, r2
 8000f08:	d022      	beq.n	8000f50 <TIM_Base_SetConfig+0x90>
 8000f0a:	f502 6280 	add.w	r2, r2, #1024	; 0x400
 8000f0e:	4290      	cmp	r0, r2
 8000f10:	d01e      	beq.n	8000f50 <TIM_Base_SetConfig+0x90>
 8000f12:	f502 6280 	add.w	r2, r2, #1024	; 0x400
 8000f16:	4290      	cmp	r0, r2
 8000f18:	d01a      	beq.n	8000f50 <TIM_Base_SetConfig+0x90>
 8000f1a:	f502 4278 	add.w	r2, r2, #63488	; 0xf800
 8000f1e:	4290      	cmp	r0, r2
 8000f20:	d016      	beq.n	8000f50 <TIM_Base_SetConfig+0x90>
 8000f22:	4a19      	ldr	r2, [pc, #100]	; (8000f88 <TIM_Base_SetConfig+0xc8>)
 8000f24:	4290      	cmp	r0, r2
 8000f26:	d013      	beq.n	8000f50 <TIM_Base_SetConfig+0x90>
 8000f28:	f502 6280 	add.w	r2, r2, #1024	; 0x400
 8000f2c:	4290      	cmp	r0, r2
 8000f2e:	d00f      	beq.n	8000f50 <TIM_Base_SetConfig+0x90>
 8000f30:	f502 6280 	add.w	r2, r2, #1024	; 0x400
 8000f34:	4290      	cmp	r0, r2
 8000f36:	d00b      	beq.n	8000f50 <TIM_Base_SetConfig+0x90>
 8000f38:	f5a2 3298 	sub.w	r2, r2, #77824	; 0x13000
 8000f3c:	4290      	cmp	r0, r2
 8000f3e:	d007      	beq.n	8000f50 <TIM_Base_SetConfig+0x90>
 8000f40:	f502 6280 	add.w	r2, r2, #1024	; 0x400
 8000f44:	4290      	cmp	r0, r2
 8000f46:	d003      	beq.n	8000f50 <TIM_Base_SetConfig+0x90>
 8000f48:	f502 6280 	add.w	r2, r2, #1024	; 0x400
 8000f4c:	4290      	cmp	r0, r2
 8000f4e:	d103      	bne.n	8000f58 <TIM_Base_SetConfig+0x98>
    tmpcr1 |= (uint32_t)Structure->ClockDivision;
 8000f50:	68ca      	ldr	r2, [r1, #12]
    tmpcr1 &= ~TIM_CR1_CKD;
 8000f52:	f423 7340 	bic.w	r3, r3, #768	; 0x300
    tmpcr1 |= (uint32_t)Structure->ClockDivision;
 8000f56:	4313      	orrs	r3, r2
  MODIFY_REG(tmpcr1, TIM_CR1_ARPE, Structure->AutoReloadPreload);
 8000f58:	694a      	ldr	r2, [r1, #20]
 8000f5a:	f023 0380 	bic.w	r3, r3, #128	; 0x80
 8000f5e:	4313      	orrs	r3, r2
  TIMx->CR1 = tmpcr1;
 8000f60:	6003      	str	r3, [r0, #0]
  TIMx->ARR = (uint32_t)Structure->Period ;
 8000f62:	688b      	ldr	r3, [r1, #8]
 8000f64:	62c3      	str	r3, [r0, #44]	; 0x2c
  TIMx->PSC = Structure->Prescaler;
 8000f66:	680b      	ldr	r3, [r1, #0]
 8000f68:	6283      	str	r3, [r0, #40]	; 0x28
  if (IS_TIM_REPETITION_COUNTER_INSTANCE(TIMx))
 8000f6a:	4b06      	ldr	r3, [pc, #24]	; (8000f84 <TIM_Base_SetConfig+0xc4>)
 8000f6c:	4298      	cmp	r0, r3
 8000f6e:	d003      	beq.n	8000f78 <TIM_Base_SetConfig+0xb8>
 8000f70:	f503 6380 	add.w	r3, r3, #1024	; 0x400
 8000f74:	4298      	cmp	r0, r3
 8000f76:	d101      	bne.n	8000f7c <TIM_Base_SetConfig+0xbc>
    TIMx->RCR = Structure->RepetitionCounter;
 8000f78:	690b      	ldr	r3, [r1, #16]
 8000f7a:	6303      	str	r3, [r0, #48]	; 0x30
  TIMx->EGR = TIM_EGR_UG;
 8000f7c:	2301      	movs	r3, #1
 8000f7e:	6143      	str	r3, [r0, #20]
 8000f80:	4770      	bx	lr
 8000f82:	bf00      	nop
 8000f84:	40010000 	.word	0x40010000
 8000f88:	40014000 	.word	0x40014000

08000f8c <HAL_TIM_Encoder_Init>:
{
 8000f8c:	b5f8      	push	{r3, r4, r5, r6, r7, lr}
 8000f8e:	460c      	mov	r4, r1
  if (htim == NULL)
 8000f90:	4605      	mov	r5, r0
 8000f92:	2800      	cmp	r0, #0
 8000f94:	d043      	beq.n	800101e <HAL_TIM_Encoder_Init+0x92>
  if (htim->State == HAL_TIM_STATE_RESET)
 8000f96:	f890 303d 	ldrb.w	r3, [r0, #61]	; 0x3d
 8000f9a:	f003 02ff 	and.w	r2, r3, #255	; 0xff
 8000f9e:	b91b      	cbnz	r3, 8000fa8 <HAL_TIM_Encoder_Init+0x1c>
    htim->Lock = HAL_UNLOCKED;
 8000fa0:	f880 203c 	strb.w	r2, [r0, #60]	; 0x3c
    HAL_TIM_Encoder_MspInit(htim);
 8000fa4:	f001 fcc2 	bl	800292c <HAL_TIM_Encoder_MspInit>
  htim->Instance->SMCR &= ~(TIM_SMCR_SMS | TIM_SMCR_ECE);
 8000fa8:	4629      	mov	r1, r5
  htim->State = HAL_TIM_STATE_BUSY;
 8000faa:	2302      	movs	r3, #2
  htim->Instance->SMCR &= ~(TIM_SMCR_SMS | TIM_SMCR_ECE);
 8000fac:	f851 0b04 	ldr.w	r0, [r1], #4
  htim->State = HAL_TIM_STATE_BUSY;
 8000fb0:	f885 303d 	strb.w	r3, [r5, #61]	; 0x3d
  htim->Instance->SMCR &= ~(TIM_SMCR_SMS | TIM_SMCR_ECE);
 8000fb4:	6883      	ldr	r3, [r0, #8]
 8000fb6:	f423 4380 	bic.w	r3, r3, #16384	; 0x4000
 8000fba:	f023 0307 	bic.w	r3, r3, #7
 8000fbe:	6083      	str	r3, [r0, #8]
  TIM_Base_SetConfig(htim->Instance, &htim->Init);
 8000fc0:	f7ff ff7e 	bl	8000ec0 <TIM_Base_SetConfig>
  tmpsmcr = htim->Instance->SMCR;
 8000fc4:	6828      	ldr	r0, [r5, #0]
  tmpsmcr |= sConfig->EncoderMode;
 8000fc6:	6823      	ldr	r3, [r4, #0]
  tmpsmcr = htim->Instance->SMCR;
 8000fc8:	6886      	ldr	r6, [r0, #8]
  tmpccmr1 = htim->Instance->CCMR1;
 8000fca:	6982      	ldr	r2, [r0, #24]
  tmpccmr1 |= (sConfig->IC1Selection | (sConfig->IC2Selection << 8U));
 8000fcc:	68a1      	ldr	r1, [r4, #8]
  tmpccer = htim->Instance->CCER;
 8000fce:	6a07      	ldr	r7, [r0, #32]
  tmpsmcr |= sConfig->EncoderMode;
 8000fd0:	431e      	orrs	r6, r3
  tmpccmr1 |= (sConfig->IC1Selection | (sConfig->IC2Selection << 8U));
 8000fd2:	69a3      	ldr	r3, [r4, #24]
  tmpccmr1 &= ~(TIM_CCMR1_CC1S | TIM_CCMR1_CC2S);
 8000fd4:	f422 7240 	bic.w	r2, r2, #768	; 0x300
 8000fd8:	f022 0203 	bic.w	r2, r2, #3
  tmpccmr1 |= (sConfig->IC1Selection | (sConfig->IC2Selection << 8U));
 8000fdc:	ea41 2303 	orr.w	r3, r1, r3, lsl #8
 8000fe0:	4313      	orrs	r3, r2
  tmpccmr1 &= ~(TIM_CCMR1_IC1F | TIM_CCMR1_IC2F);
 8000fe2:	f423 427c 	bic.w	r2, r3, #64512	; 0xfc00
  tmpccmr1 |= (sConfig->IC1Filter << 4U) | (sConfig->IC2Filter << 12U);
 8000fe6:	6923      	ldr	r3, [r4, #16]
  tmpccmr1 |= sConfig->IC1Prescaler | (sConfig->IC2Prescaler << 8U);
 8000fe8:	69e1      	ldr	r1, [r4, #28]
  tmpccmr1 |= (sConfig->IC1Filter << 4U) | (sConfig->IC2Filter << 12U);
 8000fea:	011b      	lsls	r3, r3, #4
 8000fec:	ea43 2301 	orr.w	r3, r3, r1, lsl #8
 8000ff0:	68e1      	ldr	r1, [r4, #12]
 8000ff2:	430b      	orrs	r3, r1
 8000ff4:	6a21      	ldr	r1, [r4, #32]
  tmpccmr1 &= ~(TIM_CCMR1_IC1F | TIM_CCMR1_IC2F);
 8000ff6:	f022 02fc 	bic.w	r2, r2, #252	; 0xfc
  tmpccmr1 |= (sConfig->IC1Filter << 4U) | (sConfig->IC2Filter << 12U);
 8000ffa:	ea43 3301 	orr.w	r3, r3, r1, lsl #12
 8000ffe:	4313      	orrs	r3, r2
  tmpccer |= sConfig->IC1Polarity | (sConfig->IC2Polarity << 4U);
 8001000:	6961      	ldr	r1, [r4, #20]
  tmpccer &= ~(TIM_CCER_CC1NP | TIM_CCER_CC2NP);
 8001002:	f027 02aa 	bic.w	r2, r7, #170	; 0xaa
  tmpccer |= sConfig->IC1Polarity | (sConfig->IC2Polarity << 4U);
 8001006:	6867      	ldr	r7, [r4, #4]
  htim->Instance->SMCR = tmpsmcr;
 8001008:	6086      	str	r6, [r0, #8]
  tmpccer |= sConfig->IC1Polarity | (sConfig->IC2Polarity << 4U);
 800100a:	ea47 1701 	orr.w	r7, r7, r1, lsl #4
  htim->Instance->CCMR1 = tmpccmr1;
 800100e:	6183      	str	r3, [r0, #24]
  tmpccer |= sConfig->IC1Polarity | (sConfig->IC2Polarity << 4U);
 8001010:	4317      	orrs	r7, r2
  htim->State = HAL_TIM_STATE_READY;
 8001012:	2301      	movs	r3, #1
  htim->Instance->CCER = tmpccer;
 8001014:	6207      	str	r7, [r0, #32]
  htim->State = HAL_TIM_STATE_READY;
 8001016:	f885 303d 	strb.w	r3, [r5, #61]	; 0x3d
  return HAL_OK;
 800101a:	2000      	movs	r0, #0
 800101c:	bdf8      	pop	{r3, r4, r5, r6, r7, pc}
    return HAL_ERROR;
 800101e:	2001      	movs	r0, #1
}
 8001020:	bdf8      	pop	{r3, r4, r5, r6, r7, pc}
	...

08001024 <HAL_TIMEx_MasterConfigSynchronization>:
  assert_param(IS_TIM_MASTER_INSTANCE(htim->Instance));
  assert_param(IS_TIM_TRGO_SOURCE(sMasterConfig->MasterOutputTrigger));
  assert_param(IS_TIM_MSM_STATE(sMasterConfig->MasterSlaveMode));

  /* Check input state */
  __HAL_LOCK(htim);
 8001024:	f890 303c 	ldrb.w	r3, [r0, #60]	; 0x3c
 8001028:	2b01      	cmp	r3, #1
{
 800102a:	b530      	push	{r4, r5, lr}
 800102c:	f04f 0302 	mov.w	r3, #2
  __HAL_LOCK(htim);
 8001030:	d035      	beq.n	800109e <HAL_TIMEx_MasterConfigSynchronization+0x7a>

  /* Change the handler state */
  htim->State = HAL_TIM_STATE_BUSY;
 8001032:	f880 303d 	strb.w	r3, [r0, #61]	; 0x3d

  /* Get the TIMx CR2 register value */
  tmpcr2 = htim->Instance->CR2;
 8001036:	6803      	ldr	r3, [r0, #0]
  tmpsmcr = htim->Instance->SMCR;

  /* Reset the MMS Bits */
  tmpcr2 &= ~TIM_CR2_MMS;
  /* Select the TRGO source */
  tmpcr2 |=  sMasterConfig->MasterOutputTrigger;
 8001038:	680d      	ldr	r5, [r1, #0]
  tmpcr2 = htim->Instance->CR2;
 800103a:	685c      	ldr	r4, [r3, #4]
  tmpcr2 &= ~TIM_CR2_MMS;
 800103c:	f024 0470 	bic.w	r4, r4, #112	; 0x70
  __HAL_LOCK(htim);
 8001040:	2201      	movs	r2, #1
  tmpcr2 |=  sMasterConfig->MasterOutputTrigger;
 8001042:	432c      	orrs	r4, r5
  __HAL_LOCK(htim);
 8001044:	f880 203c 	strb.w	r2, [r0, #60]	; 0x3c
  tmpsmcr = htim->Instance->SMCR;
 8001048:	689a      	ldr	r2, [r3, #8]

  /* Update TIMx CR2 */
  htim->Instance->CR2 = tmpcr2;
 800104a:	605c      	str	r4, [r3, #4]

  if (IS_TIM_SLAVE_INSTANCE(htim->Instance))
 800104c:	4c15      	ldr	r4, [pc, #84]	; (80010a4 <HAL_TIMEx_MasterConfigSynchronization+0x80>)
 800104e:	42a3      	cmp	r3, r4
 8001050:	d01a      	beq.n	8001088 <HAL_TIMEx_MasterConfigSynchronization+0x64>
 8001052:	f1b3 4f80 	cmp.w	r3, #1073741824	; 0x40000000
 8001056:	d017      	beq.n	8001088 <HAL_TIMEx_MasterConfigSynchronization+0x64>
 8001058:	f5a4 447c 	sub.w	r4, r4, #64512	; 0xfc00
 800105c:	42a3      	cmp	r3, r4
 800105e:	d013      	beq.n	8001088 <HAL_TIMEx_MasterConfigSynchronization+0x64>
 8001060:	f504 6480 	add.w	r4, r4, #1024	; 0x400
 8001064:	42a3      	cmp	r3, r4
 8001066:	d00f      	beq.n	8001088 <HAL_TIMEx_MasterConfigSynchronization+0x64>
 8001068:	f504 6480 	add.w	r4, r4, #1024	; 0x400
 800106c:	42a3      	cmp	r3, r4
 800106e:	d00b      	beq.n	8001088 <HAL_TIMEx_MasterConfigSynchronization+0x64>
 8001070:	f504 4478 	add.w	r4, r4, #63488	; 0xf800
 8001074:	42a3      	cmp	r3, r4
 8001076:	d007      	beq.n	8001088 <HAL_TIMEx_MasterConfigSynchronization+0x64>
 8001078:	f504 5470 	add.w	r4, r4, #15360	; 0x3c00
 800107c:	42a3      	cmp	r3, r4
 800107e:	d003      	beq.n	8001088 <HAL_TIMEx_MasterConfigSynchronization+0x64>
 8001080:	f5a4 3494 	sub.w	r4, r4, #75776	; 0x12800
 8001084:	42a3      	cmp	r3, r4
 8001086:	d104      	bne.n	8001092 <HAL_TIMEx_MasterConfigSynchronization+0x6e>
  {
    /* Reset the MSM Bit */
    tmpsmcr &= ~TIM_SMCR_MSM;
    /* Set master mode */
    tmpsmcr |= sMasterConfig->MasterSlaveMode;
 8001088:	6849      	ldr	r1, [r1, #4]
    tmpsmcr &= ~TIM_SMCR_MSM;
 800108a:	f022 0280 	bic.w	r2, r2, #128	; 0x80
    tmpsmcr |= sMasterConfig->MasterSlaveMode;
 800108e:	430a      	orrs	r2, r1

    /* Update TIMx SMCR */
    htim->Instance->SMCR = tmpsmcr;
 8001090:	609a      	str	r2, [r3, #8]
  }

  /* Change the htim state */
  htim->State = HAL_TIM_STATE_READY;
 8001092:	2301      	movs	r3, #1
 8001094:	f880 303d 	strb.w	r3, [r0, #61]	; 0x3d

  __HAL_UNLOCK(htim);
 8001098:	2300      	movs	r3, #0
 800109a:	f880 303c 	strb.w	r3, [r0, #60]	; 0x3c
  __HAL_LOCK(htim);
 800109e:	4618      	mov	r0, r3

  return HAL_OK;
}
 80010a0:	bd30      	pop	{r4, r5, pc}
 80010a2:	bf00      	nop
 80010a4:	40010000 	.word	0x40010000

080010a8 <LL_GPIO_Init>:
  * @retval An ErrorStatus enumeration value:
  *          - SUCCESS: GPIO registers are initialized according to GPIO_InitStruct content
  *          - ERROR:   Not applicable
  */
ErrorStatus LL_GPIO_Init(GPIO_TypeDef *GPIOx, LL_GPIO_InitTypeDef *GPIO_InitStruct)
{
 80010a8:	e92d 4ff0 	stmdb	sp!, {r4, r5, r6, r7, r8, r9, sl, fp, lr}
 80010ac:	4602      	mov	r2, r0
  assert_param(IS_LL_GPIO_MODE(GPIO_InitStruct->Mode));
  assert_param(IS_LL_GPIO_PULL(GPIO_InitStruct->Pull));

  /* ------------------------- Configure the port pins ---------------- */
  /* Initialize  pinpos on first pin set */
  pinpos = POSITION_VAL(GPIO_InitStruct->Pin);
 80010ae:	680d      	ldr	r5, [r1, #0]
  uint32_t result;

#if ((defined (__ARM_ARCH_7M__      ) && (__ARM_ARCH_7M__      == 1)) || \
     (defined (__ARM_ARCH_7EM__     ) && (__ARM_ARCH_7EM__     == 1)) || \
     (defined (__ARM_ARCH_8M_MAIN__ ) && (__ARM_ARCH_8M_MAIN__ == 1))    )
   __ASM volatile ("rbit %0, %1" : "=r" (result) : "r" (value) );
 80010b0:	fa95 f4a5 	rbit	r4, r5
  
  /* Configure the port pins */
  while (((GPIO_InitStruct->Pin) >> pinpos) != 0x00000000U)
  {
    /* Get current io position */
    currentpin = (GPIO_InitStruct->Pin) & (0x00000001U << pinpos);
 80010b4:	f04f 0c01 	mov.w	ip, #1
  pinpos = POSITION_VAL(GPIO_InitStruct->Pin);
 80010b8:	fab4 f484 	clz	r4, r4
  *         @arg @ref LL_GPIO_PULL_DOWN
  * @retval None
  */
__STATIC_INLINE void LL_GPIO_SetPinPull(GPIO_TypeDef *GPIOx, uint32_t Pin, uint32_t Pull)
{
  MODIFY_REG(GPIOx->PUPDR, (GPIO_PUPDR_PUPDR0 << (POSITION_VAL(Pin) * 2U)), (Pull << (POSITION_VAL(Pin) * 2U)));
 80010bc:	2603      	movs	r6, #3
  *         @arg @ref LL_GPIO_AF_15
  * @retval None
  */
__STATIC_INLINE void LL_GPIO_SetAFPin_8_15(GPIO_TypeDef *GPIOx, uint32_t Pin, uint32_t Alternate)
{
  MODIFY_REG(GPIOx->AFR[1], (GPIO_AFRH_AFSEL8 << (POSITION_VAL(Pin >> 8U) * 4U)),
 80010be:	f04f 0e0f 	mov.w	lr, #15
  while (((GPIO_InitStruct->Pin) >> pinpos) != 0x00000000U)
 80010c2:	fa35 f004 	lsrs.w	r0, r5, r4
 80010c6:	d101      	bne.n	80010cc <LL_GPIO_Init+0x24>
    }
    pinpos++;
  }

  return (SUCCESS);
}
 80010c8:	e8bd 8ff0 	ldmia.w	sp!, {r4, r5, r6, r7, r8, r9, sl, fp, pc}
    currentpin = (GPIO_InitStruct->Pin) & (0x00000001U << pinpos);
 80010cc:	fa0c f304 	lsl.w	r3, ip, r4
    if (currentpin)
 80010d0:	402b      	ands	r3, r5
 80010d2:	d06d      	beq.n	80011b0 <LL_GPIO_Init+0x108>
      if ((GPIO_InitStruct->Mode == LL_GPIO_MODE_OUTPUT) || (GPIO_InitStruct->Mode == LL_GPIO_MODE_ALTERNATE))
 80010d4:	6848      	ldr	r0, [r1, #4]
 80010d6:	1e47      	subs	r7, r0, #1
 80010d8:	2f01      	cmp	r7, #1
 80010da:	d81e      	bhi.n	800111a <LL_GPIO_Init+0x72>
  MODIFY_REG(GPIOx->OSPEEDR, (GPIO_OSPEEDER_OSPEEDR0 << (POSITION_VAL(Pin) * 2U)),
 80010dc:	6897      	ldr	r7, [r2, #8]
 80010de:	fa93 f8a3 	rbit	r8, r3
 80010e2:	fab8 f888 	clz	r8, r8
 80010e6:	fa93 f9a3 	rbit	r9, r3
 80010ea:	ea4f 0848 	mov.w	r8, r8, lsl #1
 80010ee:	fa06 f808 	lsl.w	r8, r6, r8
 80010f2:	ea27 0808 	bic.w	r8, r7, r8
 80010f6:	fab9 f989 	clz	r9, r9
 80010fa:	688f      	ldr	r7, [r1, #8]
 80010fc:	ea4f 0949 	mov.w	r9, r9, lsl #1
 8001100:	fa07 f709 	lsl.w	r7, r7, r9
 8001104:	ea48 0707 	orr.w	r7, r8, r7
 8001108:	6097      	str	r7, [r2, #8]
  MODIFY_REG(GPIOx->OTYPER, PinMask, (PinMask * OutputType));
 800110a:	6857      	ldr	r7, [r2, #4]
 800110c:	ea27 0803 	bic.w	r8, r7, r3
 8001110:	68cf      	ldr	r7, [r1, #12]
 8001112:	435f      	muls	r7, r3
 8001114:	ea48 0707 	orr.w	r7, r8, r7
 8001118:	6057      	str	r7, [r2, #4]
  MODIFY_REG(GPIOx->PUPDR, (GPIO_PUPDR_PUPDR0 << (POSITION_VAL(Pin) * 2U)), (Pull << (POSITION_VAL(Pin) * 2U)));
 800111a:	68d7      	ldr	r7, [r2, #12]
 800111c:	fa93 f8a3 	rbit	r8, r3
 8001120:	fab8 f888 	clz	r8, r8
 8001124:	fa93 f9a3 	rbit	r9, r3
 8001128:	ea4f 0848 	mov.w	r8, r8, lsl #1
 800112c:	fa06 f808 	lsl.w	r8, r6, r8
 8001130:	ea27 0808 	bic.w	r8, r7, r8
 8001134:	fab9 f989 	clz	r9, r9
 8001138:	690f      	ldr	r7, [r1, #16]
 800113a:	ea4f 0949 	mov.w	r9, r9, lsl #1
 800113e:	fa07 f709 	lsl.w	r7, r7, r9
 8001142:	ea48 0707 	orr.w	r7, r8, r7
      if (GPIO_InitStruct->Mode == LL_GPIO_MODE_ALTERNATE)
 8001146:	2802      	cmp	r0, #2
 8001148:	60d7      	str	r7, [r2, #12]
 800114a:	d11d      	bne.n	8001188 <LL_GPIO_Init+0xe0>
 800114c:	fa93 f7a3 	rbit	r7, r3
        if (POSITION_VAL(currentpin) < 0x00000008U)
 8001150:	fab7 f787 	clz	r7, r7
 8001154:	2f07      	cmp	r7, #7
 8001156:	f8d1 a014 	ldr.w	sl, [r1, #20]
 800115a:	dc2b      	bgt.n	80011b4 <LL_GPIO_Init+0x10c>
  MODIFY_REG(GPIOx->AFR[0], (GPIO_AFRL_AFSEL0 << (POSITION_VAL(Pin) * 4U)),
 800115c:	6a17      	ldr	r7, [r2, #32]
 800115e:	fa93 f9a3 	rbit	r9, r3
 8001162:	fab9 f989 	clz	r9, r9
 8001166:	fa93 f8a3 	rbit	r8, r3
 800116a:	fab8 f888 	clz	r8, r8
 800116e:	ea4f 0989 	mov.w	r9, r9, lsl #2
 8001172:	fa0e f909 	lsl.w	r9, lr, r9
 8001176:	ea4f 0888 	mov.w	r8, r8, lsl #2
 800117a:	ea27 0709 	bic.w	r7, r7, r9
 800117e:	fa0a fa08 	lsl.w	sl, sl, r8
 8001182:	ea47 070a 	orr.w	r7, r7, sl
 8001186:	6217      	str	r7, [r2, #32]
  MODIFY_REG(GPIOx->MODER, (GPIO_MODER_MODER0 << (POSITION_VAL(Pin) * 2U)), (Mode << (POSITION_VAL(Pin) * 2U)));
 8001188:	f8d2 8000 	ldr.w	r8, [r2]
 800118c:	fa93 f7a3 	rbit	r7, r3
 8001190:	fab7 f787 	clz	r7, r7
 8001194:	fa93 f3a3 	rbit	r3, r3
 8001198:	fab3 f383 	clz	r3, r3
 800119c:	007f      	lsls	r7, r7, #1
 800119e:	fa06 f707 	lsl.w	r7, r6, r7
 80011a2:	005b      	lsls	r3, r3, #1
 80011a4:	ea28 0707 	bic.w	r7, r8, r7
 80011a8:	fa00 f303 	lsl.w	r3, r0, r3
 80011ac:	433b      	orrs	r3, r7
 80011ae:	6013      	str	r3, [r2, #0]
    pinpos++;
 80011b0:	3401      	adds	r4, #1
 80011b2:	e786      	b.n	80010c2 <LL_GPIO_Init+0x1a>
  MODIFY_REG(GPIOx->AFR[1], (GPIO_AFRH_AFSEL8 << (POSITION_VAL(Pin >> 8U) * 4U)),
 80011b4:	f8d2 b024 	ldr.w	fp, [r2, #36]	; 0x24
 80011b8:	0a1f      	lsrs	r7, r3, #8
 80011ba:	fa97 f8a7 	rbit	r8, r7
 80011be:	fab8 f888 	clz	r8, r8
 80011c2:	fa97 f7a7 	rbit	r7, r7
 80011c6:	fab7 f787 	clz	r7, r7
 80011ca:	ea4f 0888 	mov.w	r8, r8, lsl #2
 80011ce:	fa0e f808 	lsl.w	r8, lr, r8
 80011d2:	00bf      	lsls	r7, r7, #2
 80011d4:	ea2b 0b08 	bic.w	fp, fp, r8
 80011d8:	fa0a f707 	lsl.w	r7, sl, r7
 80011dc:	ea4b 0707 	orr.w	r7, fp, r7
 80011e0:	6257      	str	r7, [r2, #36]	; 0x24
 80011e2:	e7d1      	b.n	8001188 <LL_GPIO_Init+0xe0>

080011e4 <USB_CoreReset>:
  * @brief  Reset the USB Core (needed after USB clock settings change)
  * @param  USBx  Selected device
  * @retval HAL status
  */
static HAL_StatusTypeDef USB_CoreReset(USB_OTG_GlobalTypeDef *USBx)
{
 80011e4:	4b0a      	ldr	r3, [pc, #40]	; (8001210 <USB_CoreReset+0x2c>)
  uint32_t count = 0U;

  /* Wait for AHB master IDLE state. */
  do
  {
    if (++count > 200000U)
 80011e6:	3b01      	subs	r3, #1
 80011e8:	d101      	bne.n	80011ee <USB_CoreReset+0xa>
    {
      return HAL_TIMEOUT;
 80011ea:	2003      	movs	r0, #3
 80011ec:	4770      	bx	lr
    }
  }
  while ((USBx->GRSTCTL & USB_OTG_GRSTCTL_AHBIDL) == 0U);
 80011ee:	6902      	ldr	r2, [r0, #16]
 80011f0:	2a00      	cmp	r2, #0
 80011f2:	daf8      	bge.n	80011e6 <USB_CoreReset+0x2>

  /* Core Soft Reset */
  count = 0U;
  USBx->GRSTCTL |= USB_OTG_GRSTCTL_CSRST;
 80011f4:	6903      	ldr	r3, [r0, #16]
 80011f6:	4a06      	ldr	r2, [pc, #24]	; (8001210 <USB_CoreReset+0x2c>)
 80011f8:	f043 0301 	orr.w	r3, r3, #1
 80011fc:	6103      	str	r3, [r0, #16]

  do
  {
    if (++count > 200000U)
 80011fe:	3a01      	subs	r2, #1
 8001200:	d0f3      	beq.n	80011ea <USB_CoreReset+0x6>
    {
      return HAL_TIMEOUT;
    }
  }
  while ((USBx->GRSTCTL & USB_OTG_GRSTCTL_CSRST) == USB_OTG_GRSTCTL_CSRST);
 8001202:	6903      	ldr	r3, [r0, #16]
 8001204:	f013 0301 	ands.w	r3, r3, #1
 8001208:	d1f9      	bne.n	80011fe <USB_CoreReset+0x1a>

  return HAL_OK;
 800120a:	4618      	mov	r0, r3
}
 800120c:	4770      	bx	lr
 800120e:	bf00      	nop
 8001210:	00030d41 	.word	0x00030d41

08001214 <USB_CoreInit>:
{
 8001214:	b084      	sub	sp, #16
 8001216:	b538      	push	{r3, r4, r5, lr}
 8001218:	ad05      	add	r5, sp, #20
 800121a:	e885 000e 	stmia.w	r5, {r1, r2, r3}
  if (cfg.phy_itface == USB_OTG_ULPI_PHY)
 800121e:	9b0a      	ldr	r3, [sp, #40]	; 0x28
 8001220:	2b01      	cmp	r3, #1
{
 8001222:	4604      	mov	r4, r0
  if (cfg.phy_itface == USB_OTG_ULPI_PHY)
 8001224:	d125      	bne.n	8001272 <USB_CoreInit+0x5e>
    USBx->GCCFG &= ~(USB_OTG_GCCFG_PWRDWN);
 8001226:	6b83      	ldr	r3, [r0, #56]	; 0x38
 8001228:	f423 3380 	bic.w	r3, r3, #65536	; 0x10000
 800122c:	6383      	str	r3, [r0, #56]	; 0x38
    USBx->GUSBCFG &= ~(USB_OTG_GUSBCFG_TSDPS | USB_OTG_GUSBCFG_ULPIFSLS | USB_OTG_GUSBCFG_PHYSEL);
 800122e:	68c3      	ldr	r3, [r0, #12]
 8001230:	f423 0384 	bic.w	r3, r3, #4325376	; 0x420000
 8001234:	f023 0340 	bic.w	r3, r3, #64	; 0x40
 8001238:	60c3      	str	r3, [r0, #12]
    USBx->GUSBCFG &= ~(USB_OTG_GUSBCFG_ULPIEVBUSD | USB_OTG_GUSBCFG_ULPIEVBUSI);
 800123a:	68c3      	ldr	r3, [r0, #12]
 800123c:	f423 1340 	bic.w	r3, r3, #3145728	; 0x300000
 8001240:	60c3      	str	r3, [r0, #12]
    if (cfg.use_external_vbus == 1U)
 8001242:	9b11      	ldr	r3, [sp, #68]	; 0x44
 8001244:	2b01      	cmp	r3, #1
      USBx->GUSBCFG |= USB_OTG_GUSBCFG_ULPIEVBUSD;
 8001246:	bf02      	ittt	eq
 8001248:	68c3      	ldreq	r3, [r0, #12]
 800124a:	f443 1380 	orreq.w	r3, r3, #1048576	; 0x100000
 800124e:	60c3      	streq	r3, [r0, #12]
    ret = USB_CoreReset(USBx);
 8001250:	f7ff ffc8 	bl	80011e4 <USB_CoreReset>
  if (cfg.dma_enable == 1U)
 8001254:	9b08      	ldr	r3, [sp, #32]
 8001256:	2b01      	cmp	r3, #1
 8001258:	d107      	bne.n	800126a <USB_CoreInit+0x56>
    USBx->GAHBCFG |= USB_OTG_GAHBCFG_HBSTLEN_2;
 800125a:	68a3      	ldr	r3, [r4, #8]
 800125c:	f043 0306 	orr.w	r3, r3, #6
 8001260:	60a3      	str	r3, [r4, #8]
    USBx->GAHBCFG |= USB_OTG_GAHBCFG_DMAEN;
 8001262:	68a3      	ldr	r3, [r4, #8]
 8001264:	f043 0320 	orr.w	r3, r3, #32
 8001268:	60a3      	str	r3, [r4, #8]
}
 800126a:	e8bd 4038 	ldmia.w	sp!, {r3, r4, r5, lr}
 800126e:	b004      	add	sp, #16
 8001270:	4770      	bx	lr
    USBx->GUSBCFG |= USB_OTG_GUSBCFG_PHYSEL;
 8001272:	68c3      	ldr	r3, [r0, #12]
 8001274:	f043 0340 	orr.w	r3, r3, #64	; 0x40
 8001278:	60c3      	str	r3, [r0, #12]
    ret = USB_CoreReset(USBx);
 800127a:	f7ff ffb3 	bl	80011e4 <USB_CoreReset>
    if (cfg.battery_charging_enable == 0U)
 800127e:	9b0e      	ldr	r3, [sp, #56]	; 0x38
 8001280:	b923      	cbnz	r3, 800128c <USB_CoreInit+0x78>
      USBx->GCCFG |= USB_OTG_GCCFG_PWRDWN;
 8001282:	6ba3      	ldr	r3, [r4, #56]	; 0x38
 8001284:	f443 3380 	orr.w	r3, r3, #65536	; 0x10000
      USBx->GCCFG &= ~(USB_OTG_GCCFG_PWRDWN);
 8001288:	63a3      	str	r3, [r4, #56]	; 0x38
 800128a:	e7e3      	b.n	8001254 <USB_CoreInit+0x40>
 800128c:	6ba3      	ldr	r3, [r4, #56]	; 0x38
 800128e:	f423 3380 	bic.w	r3, r3, #65536	; 0x10000
 8001292:	e7f9      	b.n	8001288 <USB_CoreInit+0x74>

08001294 <USB_SetTurnaroundTime>:
  if (speed == USBD_FS_SPEED)
 8001294:	2a02      	cmp	r2, #2
 8001296:	d158      	bne.n	800134a <USB_SetTurnaroundTime+0xb6>
    if ((hclk >= 14200000U) && (hclk < 15000000U))
 8001298:	4b2e      	ldr	r3, [pc, #184]	; (8001354 <USB_SetTurnaroundTime+0xc0>)
 800129a:	4a2f      	ldr	r2, [pc, #188]	; (8001358 <USB_SetTurnaroundTime+0xc4>)
 800129c:	440b      	add	r3, r1
 800129e:	4293      	cmp	r3, r2
 80012a0:	d947      	bls.n	8001332 <USB_SetTurnaroundTime+0x9e>
    else if ((hclk >= 15000000U) && (hclk < 16000000U))
 80012a2:	4b2e      	ldr	r3, [pc, #184]	; (800135c <USB_SetTurnaroundTime+0xc8>)
 80012a4:	4a2e      	ldr	r2, [pc, #184]	; (8001360 <USB_SetTurnaroundTime+0xcc>)
 80012a6:	440b      	add	r3, r1
 80012a8:	4293      	cmp	r3, r2
 80012aa:	d944      	bls.n	8001336 <USB_SetTurnaroundTime+0xa2>
    else if ((hclk >= 16000000U) && (hclk < 17200000U))
 80012ac:	f5a1 0374 	sub.w	r3, r1, #15990784	; 0xf40000
 80012b0:	4a2c      	ldr	r2, [pc, #176]	; (8001364 <USB_SetTurnaroundTime+0xd0>)
 80012b2:	f5a3 5310 	sub.w	r3, r3, #9216	; 0x2400
 80012b6:	4293      	cmp	r3, r2
 80012b8:	d93f      	bls.n	800133a <USB_SetTurnaroundTime+0xa6>
    else if ((hclk >= 17200000U) && (hclk < 18500000U))
 80012ba:	f1a1 7383 	sub.w	r3, r1, #17170432	; 0x1060000
 80012be:	f502 32c3 	add.w	r2, r2, #99840	; 0x18600
 80012c2:	f5a3 43e7 	sub.w	r3, r3, #29568	; 0x7380
 80012c6:	32a0      	adds	r2, #160	; 0xa0
 80012c8:	4293      	cmp	r3, r2
 80012ca:	d938      	bls.n	800133e <USB_SetTurnaroundTime+0xaa>
    else if ((hclk >= 18500000U) && (hclk < 20000000U))
 80012cc:	4b26      	ldr	r3, [pc, #152]	; (8001368 <USB_SetTurnaroundTime+0xd4>)
 80012ce:	4a27      	ldr	r2, [pc, #156]	; (800136c <USB_SetTurnaroundTime+0xd8>)
 80012d0:	440b      	add	r3, r1
 80012d2:	4293      	cmp	r3, r2
 80012d4:	d935      	bls.n	8001342 <USB_SetTurnaroundTime+0xae>
    else if ((hclk >= 20000000U) && (hclk < 21800000U))
 80012d6:	4b26      	ldr	r3, [pc, #152]	; (8001370 <USB_SetTurnaroundTime+0xdc>)
 80012d8:	f502 2292 	add.w	r2, r2, #299008	; 0x49000
 80012dc:	440b      	add	r3, r1
 80012de:	f502 7278 	add.w	r2, r2, #992	; 0x3e0
 80012e2:	4293      	cmp	r3, r2
 80012e4:	d92f      	bls.n	8001346 <USB_SetTurnaroundTime+0xb2>
    else if ((hclk >= 21800000U) && (hclk < 24000000U))
 80012e6:	4b23      	ldr	r3, [pc, #140]	; (8001374 <USB_SetTurnaroundTime+0xe0>)
 80012e8:	f502 22c3 	add.w	r2, r2, #399360	; 0x61800
 80012ec:	440b      	add	r3, r1
 80012ee:	f502 7220 	add.w	r2, r2, #640	; 0x280
 80012f2:	4293      	cmp	r3, r2
 80012f4:	d929      	bls.n	800134a <USB_SetTurnaroundTime+0xb6>
    else if ((hclk >= 24000000U) && (hclk < 27700000U))
 80012f6:	f1a1 73b7 	sub.w	r3, r1, #23986176	; 0x16e0000
 80012fa:	f502 12b7 	add.w	r2, r2, #1499136	; 0x16e000
 80012fe:	f5a3 5358 	sub.w	r3, r3, #13824	; 0x3600
 8001302:	f502 7258 	add.w	r2, r2, #864	; 0x360
 8001306:	4293      	cmp	r3, r2
 8001308:	d921      	bls.n	800134e <USB_SetTurnaroundTime+0xba>
    else if ((hclk >= 27700000U) && (hclk < 32000000U))
 800130a:	4b1b      	ldr	r3, [pc, #108]	; (8001378 <USB_SetTurnaroundTime+0xe4>)
      UsbTrd = 0x6U;
 800130c:	f502 2212 	add.w	r2, r2, #598016	; 0x92000
    else if ((hclk >= 27700000U) && (hclk < 32000000U))
 8001310:	440b      	add	r3, r1
      UsbTrd = 0x6U;
 8001312:	f502 62f8 	add.w	r2, r2, #1984	; 0x7c0
 8001316:	4293      	cmp	r3, r2
 8001318:	bf94      	ite	ls
 800131a:	2307      	movls	r3, #7
 800131c:	2306      	movhi	r3, #6
  USBx->GUSBCFG &= ~USB_OTG_GUSBCFG_TRDT;
 800131e:	68c2      	ldr	r2, [r0, #12]
 8001320:	f422 5270 	bic.w	r2, r2, #15360	; 0x3c00
 8001324:	60c2      	str	r2, [r0, #12]
  USBx->GUSBCFG |= (uint32_t)((UsbTrd << 10) & USB_OTG_GUSBCFG_TRDT);
 8001326:	68c2      	ldr	r2, [r0, #12]
 8001328:	ea42 2383 	orr.w	r3, r2, r3, lsl #10
 800132c:	60c3      	str	r3, [r0, #12]
}
 800132e:	2000      	movs	r0, #0
 8001330:	4770      	bx	lr
      UsbTrd = 0xFU;
 8001332:	230f      	movs	r3, #15
 8001334:	e7f3      	b.n	800131e <USB_SetTurnaroundTime+0x8a>
      UsbTrd = 0xEU;
 8001336:	230e      	movs	r3, #14
 8001338:	e7f1      	b.n	800131e <USB_SetTurnaroundTime+0x8a>
      UsbTrd = 0xDU;
 800133a:	230d      	movs	r3, #13
 800133c:	e7ef      	b.n	800131e <USB_SetTurnaroundTime+0x8a>
      UsbTrd = 0xCU;
 800133e:	230c      	movs	r3, #12
 8001340:	e7ed      	b.n	800131e <USB_SetTurnaroundTime+0x8a>
      UsbTrd = 0xBU;
 8001342:	230b      	movs	r3, #11
 8001344:	e7eb      	b.n	800131e <USB_SetTurnaroundTime+0x8a>
      UsbTrd = 0xAU;
 8001346:	230a      	movs	r3, #10
 8001348:	e7e9      	b.n	800131e <USB_SetTurnaroundTime+0x8a>
    UsbTrd = USBD_HS_TRDT_VALUE;
 800134a:	2309      	movs	r3, #9
 800134c:	e7e7      	b.n	800131e <USB_SetTurnaroundTime+0x8a>
      UsbTrd = 0x8U;
 800134e:	2308      	movs	r3, #8
 8001350:	e7e5      	b.n	800131e <USB_SetTurnaroundTime+0x8a>
 8001352:	bf00      	nop
 8001354:	ff275340 	.word	0xff275340
 8001358:	000c34ff 	.word	0x000c34ff
 800135c:	ff1b1e40 	.word	0xff1b1e40
 8001360:	000f423f 	.word	0x000f423f
 8001364:	00124f7f 	.word	0x00124f7f
 8001368:	fee5b660 	.word	0xfee5b660
 800136c:	0016e35f 	.word	0x0016e35f
 8001370:	feced300 	.word	0xfeced300
 8001374:	feb35bc0 	.word	0xfeb35bc0
 8001378:	fe5954e0 	.word	0xfe5954e0

0800137c <USB_EnableGlobalInt>:
  USBx->GAHBCFG |= USB_OTG_GAHBCFG_GINT;
 800137c:	6883      	ldr	r3, [r0, #8]
 800137e:	f043 0301 	orr.w	r3, r3, #1
 8001382:	6083      	str	r3, [r0, #8]
}
 8001384:	2000      	movs	r0, #0
 8001386:	4770      	bx	lr

08001388 <USB_DisableGlobalInt>:
  USBx->GAHBCFG &= ~USB_OTG_GAHBCFG_GINT;
 8001388:	6883      	ldr	r3, [r0, #8]
 800138a:	f023 0301 	bic.w	r3, r3, #1
 800138e:	6083      	str	r3, [r0, #8]
}
 8001390:	2000      	movs	r0, #0
 8001392:	4770      	bx	lr

08001394 <USB_SetCurrentMode>:
{
 8001394:	b508      	push	{r3, lr}
  USBx->GUSBCFG &= ~(USB_OTG_GUSBCFG_FHMOD | USB_OTG_GUSBCFG_FDMOD);
 8001396:	68c3      	ldr	r3, [r0, #12]
  if (mode == USB_HOST_MODE)
 8001398:	2901      	cmp	r1, #1
  USBx->GUSBCFG &= ~(USB_OTG_GUSBCFG_FHMOD | USB_OTG_GUSBCFG_FDMOD);
 800139a:	f023 43c0 	bic.w	r3, r3, #1610612736	; 0x60000000
 800139e:	60c3      	str	r3, [r0, #12]
  if (mode == USB_HOST_MODE)
 80013a0:	d108      	bne.n	80013b4 <USB_SetCurrentMode+0x20>
    USBx->GUSBCFG |= USB_OTG_GUSBCFG_FHMOD;
 80013a2:	68c3      	ldr	r3, [r0, #12]
 80013a4:	f043 5300 	orr.w	r3, r3, #536870912	; 0x20000000
    USBx->GUSBCFG |= USB_OTG_GUSBCFG_FDMOD;
 80013a8:	60c3      	str	r3, [r0, #12]
  HAL_Delay(50U);
 80013aa:	2032      	movs	r0, #50	; 0x32
 80013ac:	f7fe ff64 	bl	8000278 <HAL_Delay>
  return HAL_OK;
 80013b0:	2000      	movs	r0, #0
 80013b2:	bd08      	pop	{r3, pc}
  else if (mode == USB_DEVICE_MODE)
 80013b4:	b919      	cbnz	r1, 80013be <USB_SetCurrentMode+0x2a>
    USBx->GUSBCFG |= USB_OTG_GUSBCFG_FDMOD;
 80013b6:	68c3      	ldr	r3, [r0, #12]
 80013b8:	f043 4380 	orr.w	r3, r3, #1073741824	; 0x40000000
 80013bc:	e7f4      	b.n	80013a8 <USB_SetCurrentMode+0x14>
    return HAL_ERROR;
 80013be:	2001      	movs	r0, #1
}
 80013c0:	bd08      	pop	{r3, pc}
	...

080013c4 <USB_FlushTxFifo>:
  USBx->GRSTCTL = (USB_OTG_GRSTCTL_TXFFLSH | (num << 6));
 80013c4:	0189      	lsls	r1, r1, #6
 80013c6:	f041 0120 	orr.w	r1, r1, #32
 80013ca:	4a06      	ldr	r2, [pc, #24]	; (80013e4 <USB_FlushTxFifo+0x20>)
 80013cc:	6101      	str	r1, [r0, #16]
    if (++count > 200000U)
 80013ce:	3a01      	subs	r2, #1
 80013d0:	d005      	beq.n	80013de <USB_FlushTxFifo+0x1a>
  while ((USBx->GRSTCTL & USB_OTG_GRSTCTL_TXFFLSH) == USB_OTG_GRSTCTL_TXFFLSH);
 80013d2:	6903      	ldr	r3, [r0, #16]
 80013d4:	f013 0320 	ands.w	r3, r3, #32
 80013d8:	d1f9      	bne.n	80013ce <USB_FlushTxFifo+0xa>
  return HAL_OK;
 80013da:	4618      	mov	r0, r3
 80013dc:	4770      	bx	lr
      return HAL_TIMEOUT;
 80013de:	2003      	movs	r0, #3
}
 80013e0:	4770      	bx	lr
 80013e2:	bf00      	nop
 80013e4:	00030d41 	.word	0x00030d41

080013e8 <USB_FlushRxFifo>:
  USBx->GRSTCTL = USB_OTG_GRSTCTL_RXFFLSH;
 80013e8:	2310      	movs	r3, #16
 80013ea:	4a06      	ldr	r2, [pc, #24]	; (8001404 <USB_FlushRxFifo+0x1c>)
 80013ec:	6103      	str	r3, [r0, #16]
    if (++count > 200000U)
 80013ee:	3a01      	subs	r2, #1
 80013f0:	d005      	beq.n	80013fe <USB_FlushRxFifo+0x16>
  while ((USBx->GRSTCTL & USB_OTG_GRSTCTL_RXFFLSH) == USB_OTG_GRSTCTL_RXFFLSH);
 80013f2:	6903      	ldr	r3, [r0, #16]
 80013f4:	f013 0310 	ands.w	r3, r3, #16
 80013f8:	d1f9      	bne.n	80013ee <USB_FlushRxFifo+0x6>
  return HAL_OK;
 80013fa:	4618      	mov	r0, r3
 80013fc:	4770      	bx	lr
      return HAL_TIMEOUT;
 80013fe:	2003      	movs	r0, #3
}
 8001400:	4770      	bx	lr
 8001402:	bf00      	nop
 8001404:	00030d41 	.word	0x00030d41

08001408 <USB_SetDevSpeed>:
  USBx_DEVICE->DCFG |= speed;
 8001408:	f8d0 3800 	ldr.w	r3, [r0, #2048]	; 0x800
 800140c:	4319      	orrs	r1, r3
 800140e:	f8c0 1800 	str.w	r1, [r0, #2048]	; 0x800
}
 8001412:	2000      	movs	r0, #0
 8001414:	4770      	bx	lr
	...

08001418 <USB_DevInit>:
{
 8001418:	b084      	sub	sp, #16
 800141a:	e92d 43f8 	stmdb	sp!, {r3, r4, r5, r6, r7, r8, r9, lr}
 800141e:	4604      	mov	r4, r0
 8001420:	a809      	add	r0, sp, #36	; 0x24
 8001422:	e880 000e 	stmia.w	r0, {r1, r2, r3}
  for (i = 0U; i < 15U; i++)
 8001426:	2300      	movs	r3, #0
 8001428:	9d13      	ldr	r5, [sp, #76]	; 0x4c
 800142a:	460f      	mov	r7, r1
    USBx->DIEPTXF[i] = 0U;
 800142c:	4619      	mov	r1, r3
 800142e:	f103 0240 	add.w	r2, r3, #64	; 0x40
 8001432:	eb04 0282 	add.w	r2, r4, r2, lsl #2
  for (i = 0U; i < 15U; i++)
 8001436:	3301      	adds	r3, #1
 8001438:	2b0f      	cmp	r3, #15
    USBx->DIEPTXF[i] = 0U;
 800143a:	6051      	str	r1, [r2, #4]
  for (i = 0U; i < 15U; i++)
 800143c:	d1f7      	bne.n	800142e <USB_DevInit+0x16>
 800143e:	f504 6600 	add.w	r6, r4, #2048	; 0x800
  if (cfg.vbus_sensing_enable == 0U)
 8001442:	2d00      	cmp	r5, #0
 8001444:	d16c      	bne.n	8001520 <USB_DevInit+0x108>
    USBx_DEVICE->DCTL |= USB_OTG_DCTL_SDIS;
 8001446:	6873      	ldr	r3, [r6, #4]
 8001448:	f043 0302 	orr.w	r3, r3, #2
 800144c:	6073      	str	r3, [r6, #4]
    USBx->GCCFG |= USB_OTG_GCCFG_NOVBUSSENS;
 800144e:	6ba3      	ldr	r3, [r4, #56]	; 0x38
 8001450:	f443 1300 	orr.w	r3, r3, #2097152	; 0x200000
 8001454:	63a3      	str	r3, [r4, #56]	; 0x38
    USBx->GCCFG &= ~USB_OTG_GCCFG_VBUSBSEN;
 8001456:	6ba3      	ldr	r3, [r4, #56]	; 0x38
 8001458:	f423 2300 	bic.w	r3, r3, #524288	; 0x80000
 800145c:	63a3      	str	r3, [r4, #56]	; 0x38
    USBx->GCCFG &= ~USB_OTG_GCCFG_VBUSASEN;
 800145e:	6ba3      	ldr	r3, [r4, #56]	; 0x38
 8001460:	f423 2380 	bic.w	r3, r3, #262144	; 0x40000
    USBx->GCCFG |= USB_OTG_GCCFG_VBUSBSEN;
 8001464:	63a3      	str	r3, [r4, #56]	; 0x38
  USBx_PCGCCTL = 0U;
 8001466:	2300      	movs	r3, #0
 8001468:	f8c4 3e00 	str.w	r3, [r4, #3584]	; 0xe00
  USBx_DEVICE->DCFG |= DCFG_FRAME_INTERVAL_80;
 800146c:	f8d4 3800 	ldr.w	r3, [r4, #2048]	; 0x800
 8001470:	f8c4 3800 	str.w	r3, [r4, #2048]	; 0x800
  if (cfg.phy_itface == USB_OTG_ULPI_PHY)
 8001474:	9b0e      	ldr	r3, [sp, #56]	; 0x38
 8001476:	2b01      	cmp	r3, #1
 8001478:	d15c      	bne.n	8001534 <USB_DevInit+0x11c>
    if (cfg.speed == USBD_HS_SPEED)
 800147a:	990b      	ldr	r1, [sp, #44]	; 0x2c
 800147c:	2900      	cmp	r1, #0
 800147e:	d157      	bne.n	8001530 <USB_DevInit+0x118>
    (void)USB_SetDevSpeed(USBx, USB_OTG_SPEED_FULL);
 8001480:	4620      	mov	r0, r4
 8001482:	f7ff ffc1 	bl	8001408 <USB_SetDevSpeed>
  if (USB_FlushTxFifo(USBx, 0x10U) != HAL_OK) /* all Tx FIFOs */
 8001486:	2110      	movs	r1, #16
 8001488:	4620      	mov	r0, r4
 800148a:	f7ff ff9b 	bl	80013c4 <USB_FlushTxFifo>
 800148e:	4601      	mov	r1, r0
  if (USB_FlushRxFifo(USBx) != HAL_OK)
 8001490:	4620      	mov	r0, r4
 8001492:	f7ff ffa9 	bl	80013e8 <USB_FlushRxFifo>
 8001496:	2800      	cmp	r0, #0
 8001498:	d14e      	bne.n	8001538 <USB_DevInit+0x120>
  if (USB_FlushTxFifo(USBx, 0x10U) != HAL_OK) /* all Tx FIFOs */
 800149a:	1c08      	adds	r0, r1, #0
 800149c:	bf18      	it	ne
 800149e:	2001      	movne	r0, #1
  USBx_DEVICE->DIEPMSK = 0U;
 80014a0:	2300      	movs	r3, #0
 80014a2:	6133      	str	r3, [r6, #16]
 80014a4:	f504 6210 	add.w	r2, r4, #2304	; 0x900
  USBx_DEVICE->DOEPMSK = 0U;
 80014a8:	6173      	str	r3, [r6, #20]
      USBx_INEP(i)->DIEPCTL = 0U;
 80014aa:	4619      	mov	r1, r3
  USBx_DEVICE->DAINTMSK = 0U;
 80014ac:	61f3      	str	r3, [r6, #28]
        USBx_INEP(i)->DIEPCTL = USB_OTG_DIEPCTL_EPDIS | USB_OTG_DIEPCTL_SNAK;
 80014ae:	f04f 4e90 	mov.w	lr, #1207959552	; 0x48000000
        USBx_INEP(i)->DIEPCTL = USB_OTG_DIEPCTL_SNAK;
 80014b2:	f04f 6c00 	mov.w	ip, #134217728	; 0x8000000
    USBx_INEP(i)->DIEPINT  = 0xFB7FU;
 80014b6:	f64f 387f 	movw	r8, #64383	; 0xfb7f
  for (i = 0U; i < cfg.dev_endpoints; i++)
 80014ba:	42bb      	cmp	r3, r7
 80014bc:	d13e      	bne.n	800153c <USB_DevInit+0x124>
 80014be:	2100      	movs	r1, #0
 80014c0:	f504 6230 	add.w	r2, r4, #2816	; 0xb00
      USBx_OUTEP(i)->DOEPCTL = 0U;
 80014c4:	460f      	mov	r7, r1
        USBx_OUTEP(i)->DOEPCTL = USB_OTG_DOEPCTL_EPDIS | USB_OTG_DOEPCTL_SNAK;
 80014c6:	f04f 4e90 	mov.w	lr, #1207959552	; 0x48000000
        USBx_OUTEP(i)->DOEPCTL = USB_OTG_DOEPCTL_SNAK;
 80014ca:	f04f 6c00 	mov.w	ip, #134217728	; 0x8000000
    USBx_OUTEP(i)->DOEPINT  = 0xFB7FU;
 80014ce:	f64f 387f 	movw	r8, #64383	; 0xfb7f
  for (i = 0U; i < cfg.dev_endpoints; i++)
 80014d2:	428b      	cmp	r3, r1
 80014d4:	d145      	bne.n	8001562 <USB_DevInit+0x14a>
  USBx_DEVICE->DIEPMSK &= ~(USB_OTG_DIEPMSK_TXFURM);
 80014d6:	6933      	ldr	r3, [r6, #16]
 80014d8:	f423 7380 	bic.w	r3, r3, #256	; 0x100
 80014dc:	6133      	str	r3, [r6, #16]
  USBx->GINTMSK = 0U;
 80014de:	2300      	movs	r3, #0
 80014e0:	61a3      	str	r3, [r4, #24]
  USBx->GINTSTS = 0xBFFFFFFFU;
 80014e2:	f06f 4380 	mvn.w	r3, #1073741824	; 0x40000000
 80014e6:	6163      	str	r3, [r4, #20]
  if (cfg.dma_enable == 0U)
 80014e8:	9b0c      	ldr	r3, [sp, #48]	; 0x30
 80014ea:	b91b      	cbnz	r3, 80014f4 <USB_DevInit+0xdc>
    USBx->GINTMSK |= USB_OTG_GINTMSK_RXFLVLM;
 80014ec:	69a3      	ldr	r3, [r4, #24]
 80014ee:	f043 0310 	orr.w	r3, r3, #16
 80014f2:	61a3      	str	r3, [r4, #24]
  USBx->GINTMSK |= USB_OTG_GINTMSK_USBSUSPM | USB_OTG_GINTMSK_USBRST |
 80014f4:	69a2      	ldr	r2, [r4, #24]
 80014f6:	4b24      	ldr	r3, [pc, #144]	; (8001588 <USB_DevInit+0x170>)
 80014f8:	4313      	orrs	r3, r2
 80014fa:	61a3      	str	r3, [r4, #24]
  if (cfg.Sof_enable != 0U)
 80014fc:	9b0f      	ldr	r3, [sp, #60]	; 0x3c
 80014fe:	b11b      	cbz	r3, 8001508 <USB_DevInit+0xf0>
    USBx->GINTMSK |= USB_OTG_GINTMSK_SOFM;
 8001500:	69a3      	ldr	r3, [r4, #24]
 8001502:	f043 0308 	orr.w	r3, r3, #8
 8001506:	61a3      	str	r3, [r4, #24]
  if (cfg.vbus_sensing_enable == 1U)
 8001508:	2d01      	cmp	r5, #1
    USBx->GINTMSK |= (USB_OTG_GINTMSK_SRQIM | USB_OTG_GINTMSK_OTGINT);
 800150a:	bf01      	itttt	eq
 800150c:	69a3      	ldreq	r3, [r4, #24]
 800150e:	f043 4380 	orreq.w	r3, r3, #1073741824	; 0x40000000
 8001512:	f043 0304 	orreq.w	r3, r3, #4
 8001516:	61a3      	streq	r3, [r4, #24]
}
 8001518:	e8bd 43f8 	ldmia.w	sp!, {r3, r4, r5, r6, r7, r8, r9, lr}
 800151c:	b004      	add	sp, #16
 800151e:	4770      	bx	lr
    USBx->GCCFG &= ~USB_OTG_GCCFG_NOVBUSSENS;
 8001520:	6ba3      	ldr	r3, [r4, #56]	; 0x38
 8001522:	f423 1300 	bic.w	r3, r3, #2097152	; 0x200000
 8001526:	63a3      	str	r3, [r4, #56]	; 0x38
    USBx->GCCFG |= USB_OTG_GCCFG_VBUSBSEN;
 8001528:	6ba3      	ldr	r3, [r4, #56]	; 0x38
 800152a:	f443 2300 	orr.w	r3, r3, #524288	; 0x80000
 800152e:	e799      	b.n	8001464 <USB_DevInit+0x4c>
      (void)USB_SetDevSpeed(USBx, USB_OTG_SPEED_HIGH_IN_FULL);
 8001530:	4619      	mov	r1, r3
 8001532:	e7a5      	b.n	8001480 <USB_DevInit+0x68>
    (void)USB_SetDevSpeed(USBx, USB_OTG_SPEED_FULL);
 8001534:	2103      	movs	r1, #3
 8001536:	e7a3      	b.n	8001480 <USB_DevInit+0x68>
 8001538:	2001      	movs	r0, #1
 800153a:	e7b1      	b.n	80014a0 <USB_DevInit+0x88>
    if ((USBx_INEP(i)->DIEPCTL & USB_OTG_DIEPCTL_EPENA) == USB_OTG_DIEPCTL_EPENA)
 800153c:	f8d2 9000 	ldr.w	r9, [r2]
 8001540:	f1b9 0f00 	cmp.w	r9, #0
 8001544:	da0b      	bge.n	800155e <USB_DevInit+0x146>
      if (i == 0U)
 8001546:	b93b      	cbnz	r3, 8001558 <USB_DevInit+0x140>
        USBx_INEP(i)->DIEPCTL = USB_OTG_DIEPCTL_SNAK;
 8001548:	f8c2 c000 	str.w	ip, [r2]
    USBx_INEP(i)->DIEPTSIZ = 0U;
 800154c:	6111      	str	r1, [r2, #16]
  for (i = 0U; i < cfg.dev_endpoints; i++)
 800154e:	3301      	adds	r3, #1
    USBx_INEP(i)->DIEPINT  = 0xFB7FU;
 8001550:	f8c2 8008 	str.w	r8, [r2, #8]
 8001554:	3220      	adds	r2, #32
 8001556:	e7b0      	b.n	80014ba <USB_DevInit+0xa2>
        USBx_INEP(i)->DIEPCTL = USB_OTG_DIEPCTL_EPDIS | USB_OTG_DIEPCTL_SNAK;
 8001558:	f8c2 e000 	str.w	lr, [r2]
 800155c:	e7f6      	b.n	800154c <USB_DevInit+0x134>
      USBx_INEP(i)->DIEPCTL = 0U;
 800155e:	6011      	str	r1, [r2, #0]
 8001560:	e7f4      	b.n	800154c <USB_DevInit+0x134>
    if ((USBx_OUTEP(i)->DOEPCTL & USB_OTG_DOEPCTL_EPENA) == USB_OTG_DOEPCTL_EPENA)
 8001562:	f8d2 9000 	ldr.w	r9, [r2]
 8001566:	f1b9 0f00 	cmp.w	r9, #0
 800156a:	da0b      	bge.n	8001584 <USB_DevInit+0x16c>
      if (i == 0U)
 800156c:	b939      	cbnz	r1, 800157e <USB_DevInit+0x166>
        USBx_OUTEP(i)->DOEPCTL = USB_OTG_DOEPCTL_SNAK;
 800156e:	f8c2 c000 	str.w	ip, [r2]
    USBx_OUTEP(i)->DOEPTSIZ = 0U;
 8001572:	6117      	str	r7, [r2, #16]
  for (i = 0U; i < cfg.dev_endpoints; i++)
 8001574:	3101      	adds	r1, #1
    USBx_OUTEP(i)->DOEPINT  = 0xFB7FU;
 8001576:	f8c2 8008 	str.w	r8, [r2, #8]
 800157a:	3220      	adds	r2, #32
 800157c:	e7a9      	b.n	80014d2 <USB_DevInit+0xba>
        USBx_OUTEP(i)->DOEPCTL = USB_OTG_DOEPCTL_EPDIS | USB_OTG_DOEPCTL_SNAK;
 800157e:	f8c2 e000 	str.w	lr, [r2]
 8001582:	e7f6      	b.n	8001572 <USB_DevInit+0x15a>
      USBx_OUTEP(i)->DOEPCTL = 0U;
 8001584:	6017      	str	r7, [r2, #0]
 8001586:	e7f4      	b.n	8001572 <USB_DevInit+0x15a>
 8001588:	803c3800 	.word	0x803c3800

0800158c <USB_GetDevSpeed>:
  uint32_t DevEnumSpeed = USBx_DEVICE->DSTS & USB_OTG_DSTS_ENUMSPD;
 800158c:	f8d0 3808 	ldr.w	r3, [r0, #2056]	; 0x808
  if (DevEnumSpeed == DSTS_ENUMSPD_HS_PHY_30MHZ_OR_60MHZ)
 8001590:	f013 0006 	ands.w	r0, r3, #6
 8001594:	d004      	beq.n	80015a0 <USB_GetDevSpeed+0x14>
  else if ((DevEnumSpeed == DSTS_ENUMSPD_FS_PHY_30MHZ_OR_60MHZ) ||
 8001596:	f013 0f02 	tst.w	r3, #2
    speed = 0xFU;
 800159a:	bf14      	ite	ne
 800159c:	2002      	movne	r0, #2
 800159e:	200f      	moveq	r0, #15
}
 80015a0:	4770      	bx	lr

080015a2 <USB_ActivateEndpoint>:
{
 80015a2:	b570      	push	{r4, r5, r6, lr}
  if (ep->is_in == 1U)
 80015a4:	784a      	ldrb	r2, [r1, #1]
  uint32_t epnum = (uint32_t)ep->num;
 80015a6:	780c      	ldrb	r4, [r1, #0]
    USBx_DEVICE->DAINTMSK |= USB_OTG_DAINTMSK_IEPM & (uint32_t)(1UL << (ep->num & EP_ADDR_MSK));
 80015a8:	f8d0 681c 	ldr.w	r6, [r0, #2076]	; 0x81c
 80015ac:	f500 6300 	add.w	r3, r0, #2048	; 0x800
  if (ep->is_in == 1U)
 80015b0:	2a01      	cmp	r2, #1
 80015b2:	f004 050f 	and.w	r5, r4, #15
 80015b6:	d11b      	bne.n	80015f0 <USB_ActivateEndpoint+0x4e>
    USBx_DEVICE->DAINTMSK |= USB_OTG_DAINTMSK_IEPM & (uint32_t)(1UL << (ep->num & EP_ADDR_MSK));
 80015b8:	40aa      	lsls	r2, r5
 80015ba:	4332      	orrs	r2, r6
    if ((USBx_INEP(epnum)->DIEPCTL & USB_OTG_DIEPCTL_USBAEP) == 0U)
 80015bc:	eb00 1044 	add.w	r0, r0, r4, lsl #5
    USBx_DEVICE->DAINTMSK |= USB_OTG_DAINTMSK_IEPM & (uint32_t)(1UL << (ep->num & EP_ADDR_MSK));
 80015c0:	61da      	str	r2, [r3, #28]
    if ((USBx_INEP(epnum)->DIEPCTL & USB_OTG_DIEPCTL_USBAEP) == 0U)
 80015c2:	f8d0 3900 	ldr.w	r3, [r0, #2304]	; 0x900
 80015c6:	041a      	lsls	r2, r3, #16
 80015c8:	d410      	bmi.n	80015ec <USB_ActivateEndpoint+0x4a>
      USBx_INEP(epnum)->DIEPCTL |= (ep->maxpacket & USB_OTG_DIEPCTL_MPSIZ) |
 80015ca:	688b      	ldr	r3, [r1, #8]
                                   ((uint32_t)ep->type << 18) | (epnum << 22) |
 80015cc:	78c9      	ldrb	r1, [r1, #3]
      USBx_INEP(epnum)->DIEPCTL |= (ep->maxpacket & USB_OTG_DIEPCTL_MPSIZ) |
 80015ce:	f8d0 2900 	ldr.w	r2, [r0, #2304]	; 0x900
 80015d2:	f3c3 030a 	ubfx	r3, r3, #0, #11
 80015d6:	f043 5380 	orr.w	r3, r3, #268435456	; 0x10000000
 80015da:	f443 4300 	orr.w	r3, r3, #32768	; 0x8000
 80015de:	ea43 4381 	orr.w	r3, r3, r1, lsl #18
 80015e2:	ea43 5384 	orr.w	r3, r3, r4, lsl #22
 80015e6:	4313      	orrs	r3, r2
 80015e8:	f8c0 3900 	str.w	r3, [r0, #2304]	; 0x900
}
 80015ec:	2000      	movs	r0, #0
 80015ee:	bd70      	pop	{r4, r5, r6, pc}
    USBx_DEVICE->DAINTMSK |= USB_OTG_DAINTMSK_OEPM & ((uint32_t)(1UL << (ep->num & EP_ADDR_MSK)) << 16);
 80015f0:	f44f 3280 	mov.w	r2, #65536	; 0x10000
 80015f4:	40aa      	lsls	r2, r5
 80015f6:	4332      	orrs	r2, r6
    if (((USBx_OUTEP(epnum)->DOEPCTL) & USB_OTG_DOEPCTL_USBAEP) == 0U)
 80015f8:	eb00 1044 	add.w	r0, r0, r4, lsl #5
    USBx_DEVICE->DAINTMSK |= USB_OTG_DAINTMSK_OEPM & ((uint32_t)(1UL << (ep->num & EP_ADDR_MSK)) << 16);
 80015fc:	61da      	str	r2, [r3, #28]
    if (((USBx_OUTEP(epnum)->DOEPCTL) & USB_OTG_DOEPCTL_USBAEP) == 0U)
 80015fe:	f8d0 3b00 	ldr.w	r3, [r0, #2816]	; 0xb00
 8001602:	041b      	lsls	r3, r3, #16
 8001604:	d4f2      	bmi.n	80015ec <USB_ActivateEndpoint+0x4a>
      USBx_OUTEP(epnum)->DOEPCTL |= (ep->maxpacket & USB_OTG_DOEPCTL_MPSIZ) |
 8001606:	688b      	ldr	r3, [r1, #8]
                                    ((uint32_t)ep->type << 18) |
 8001608:	78c9      	ldrb	r1, [r1, #3]
      USBx_OUTEP(epnum)->DOEPCTL |= (ep->maxpacket & USB_OTG_DOEPCTL_MPSIZ) |
 800160a:	f8d0 2b00 	ldr.w	r2, [r0, #2816]	; 0xb00
 800160e:	f3c3 030a 	ubfx	r3, r3, #0, #11
 8001612:	f043 5380 	orr.w	r3, r3, #268435456	; 0x10000000
 8001616:	f443 4300 	orr.w	r3, r3, #32768	; 0x8000
 800161a:	ea43 4381 	orr.w	r3, r3, r1, lsl #18
 800161e:	4313      	orrs	r3, r2
 8001620:	f8c0 3b00 	str.w	r3, [r0, #2816]	; 0xb00
 8001624:	e7e2      	b.n	80015ec <USB_ActivateEndpoint+0x4a>
	...

08001628 <USB_DeactivateEndpoint>:
{
 8001628:	b530      	push	{r4, r5, lr}
  if (ep->is_in == 1U)
 800162a:	784b      	ldrb	r3, [r1, #1]
  uint32_t epnum = (uint32_t)ep->num;
 800162c:	780c      	ldrb	r4, [r1, #0]
  if (ep->is_in == 1U)
 800162e:	2b01      	cmp	r3, #1
 8001630:	f04f 0320 	mov.w	r3, #32
 8001634:	f500 6200 	add.w	r2, r0, #2048	; 0x800
 8001638:	f004 050f 	and.w	r5, r4, #15
    if ((USBx_INEP(epnum)->DIEPCTL & USB_OTG_DIEPCTL_EPENA) == USB_OTG_DIEPCTL_EPENA)
 800163c:	fb13 0004 	smlabb	r0, r3, r4, r0
  if (ep->is_in == 1U)
 8001640:	d120      	bne.n	8001684 <USB_DeactivateEndpoint+0x5c>
    if ((USBx_INEP(epnum)->DIEPCTL & USB_OTG_DIEPCTL_EPENA) == USB_OTG_DIEPCTL_EPENA)
 8001642:	f8d0 3900 	ldr.w	r3, [r0, #2304]	; 0x900
 8001646:	2b00      	cmp	r3, #0
 8001648:	da0b      	bge.n	8001662 <USB_DeactivateEndpoint+0x3a>
      USBx_INEP(epnum)->DIEPCTL |= USB_OTG_DIEPCTL_SNAK;
 800164a:	f8d0 3900 	ldr.w	r3, [r0, #2304]	; 0x900
 800164e:	f043 6300 	orr.w	r3, r3, #134217728	; 0x8000000
 8001652:	f8c0 3900 	str.w	r3, [r0, #2304]	; 0x900
      USBx_INEP(epnum)->DIEPCTL |= USB_OTG_DIEPCTL_EPDIS;
 8001656:	f8d0 3900 	ldr.w	r3, [r0, #2304]	; 0x900
 800165a:	f043 4380 	orr.w	r3, r3, #1073741824	; 0x40000000
 800165e:	f8c0 3900 	str.w	r3, [r0, #2304]	; 0x900
    USBx_DEVICE->DEACHMSK &= ~(USB_OTG_DAINTMSK_IEPM & (uint32_t)(1UL << (ep->num & EP_ADDR_MSK)));
 8001662:	2301      	movs	r3, #1
 8001664:	6bd1      	ldr	r1, [r2, #60]	; 0x3c
 8001666:	40ab      	lsls	r3, r5
 8001668:	43db      	mvns	r3, r3
 800166a:	4019      	ands	r1, r3
 800166c:	63d1      	str	r1, [r2, #60]	; 0x3c
    USBx_DEVICE->DAINTMSK &= ~(USB_OTG_DAINTMSK_IEPM & (uint32_t)(1UL << (ep->num & EP_ADDR_MSK)));
 800166e:	69d1      	ldr	r1, [r2, #28]
 8001670:	400b      	ands	r3, r1
 8001672:	61d3      	str	r3, [r2, #28]
    USBx_INEP(epnum)->DIEPCTL &= ~(USB_OTG_DIEPCTL_USBAEP |
 8001674:	f8d0 2900 	ldr.w	r2, [r0, #2304]	; 0x900
 8001678:	4b13      	ldr	r3, [pc, #76]	; (80016c8 <USB_DeactivateEndpoint+0xa0>)
 800167a:	4013      	ands	r3, r2
 800167c:	f8c0 3900 	str.w	r3, [r0, #2304]	; 0x900
}
 8001680:	2000      	movs	r0, #0
 8001682:	bd30      	pop	{r4, r5, pc}
    if ((USBx_OUTEP(epnum)->DOEPCTL & USB_OTG_DOEPCTL_EPENA) == USB_OTG_DOEPCTL_EPENA)
 8001684:	f8d0 3b00 	ldr.w	r3, [r0, #2816]	; 0xb00
 8001688:	2b00      	cmp	r3, #0
 800168a:	da0b      	bge.n	80016a4 <USB_DeactivateEndpoint+0x7c>
      USBx_OUTEP(epnum)->DOEPCTL |= USB_OTG_DOEPCTL_SNAK;
 800168c:	f8d0 1b00 	ldr.w	r1, [r0, #2816]	; 0xb00
 8001690:	f041 6100 	orr.w	r1, r1, #134217728	; 0x8000000
 8001694:	f8c0 1b00 	str.w	r1, [r0, #2816]	; 0xb00
      USBx_OUTEP(epnum)->DOEPCTL |= USB_OTG_DOEPCTL_EPDIS;
 8001698:	f8d0 1b00 	ldr.w	r1, [r0, #2816]	; 0xb00
 800169c:	f041 4180 	orr.w	r1, r1, #1073741824	; 0x40000000
 80016a0:	f8c0 1b00 	str.w	r1, [r0, #2816]	; 0xb00
    USBx_DEVICE->DEACHMSK &= ~(USB_OTG_DAINTMSK_OEPM & ((uint32_t)(1UL << (ep->num & EP_ADDR_MSK)) << 16));
 80016a4:	f44f 3380 	mov.w	r3, #65536	; 0x10000
 80016a8:	6bd1      	ldr	r1, [r2, #60]	; 0x3c
 80016aa:	40ab      	lsls	r3, r5
 80016ac:	43db      	mvns	r3, r3
 80016ae:	4019      	ands	r1, r3
 80016b0:	63d1      	str	r1, [r2, #60]	; 0x3c
    USBx_DEVICE->DAINTMSK &= ~(USB_OTG_DAINTMSK_OEPM & ((uint32_t)(1UL << (ep->num & EP_ADDR_MSK)) << 16));
 80016b2:	69d1      	ldr	r1, [r2, #28]
 80016b4:	400b      	ands	r3, r1
 80016b6:	61d3      	str	r3, [r2, #28]
    USBx_OUTEP(epnum)->DOEPCTL &= ~(USB_OTG_DOEPCTL_USBAEP |
 80016b8:	f8d0 2b00 	ldr.w	r2, [r0, #2816]	; 0xb00
 80016bc:	4b03      	ldr	r3, [pc, #12]	; (80016cc <USB_DeactivateEndpoint+0xa4>)
 80016be:	4013      	ands	r3, r2
 80016c0:	f8c0 3b00 	str.w	r3, [r0, #2816]	; 0xb00
 80016c4:	e7dc      	b.n	8001680 <USB_DeactivateEndpoint+0x58>
 80016c6:	bf00      	nop
 80016c8:	ec337800 	.word	0xec337800
 80016cc:	eff37800 	.word	0xeff37800

080016d0 <USB_EP0StartXfer>:
{
 80016d0:	b5f0      	push	{r4, r5, r6, r7, lr}
  if (ep->is_in == 1U)
 80016d2:	784b      	ldrb	r3, [r1, #1]
  uint32_t epnum = (uint32_t)ep->num;
 80016d4:	780c      	ldrb	r4, [r1, #0]
 80016d6:	694e      	ldr	r6, [r1, #20]
 80016d8:	4f41      	ldr	r7, [pc, #260]	; (80017e0 <USB_EP0StartXfer+0x110>)
  if (ep->is_in == 1U)
 80016da:	2b01      	cmp	r3, #1
 80016dc:	f04f 0320 	mov.w	r3, #32
 80016e0:	d159      	bne.n	8001796 <USB_EP0StartXfer+0xc6>
      USBx_INEP(epnum)->DIEPTSIZ &= ~(USB_OTG_DIEPTSIZ_PKTCNT);
 80016e2:	fb13 0304 	smlabb	r3, r3, r4, r0
    if (ep->xfer_len == 0U)
 80016e6:	bb36      	cbnz	r6, 8001736 <USB_EP0StartXfer+0x66>
      USBx_INEP(epnum)->DIEPTSIZ &= ~(USB_OTG_DIEPTSIZ_PKTCNT);
 80016e8:	f8d3 5910 	ldr.w	r5, [r3, #2320]	; 0x910
 80016ec:	f025 55ff 	bic.w	r5, r5, #534773760	; 0x1fe00000
 80016f0:	f425 15c0 	bic.w	r5, r5, #1572864	; 0x180000
 80016f4:	f8c3 5910 	str.w	r5, [r3, #2320]	; 0x910
      USBx_INEP(epnum)->DIEPTSIZ |= (USB_OTG_DIEPTSIZ_PKTCNT & (1U << 19));
 80016f8:	f8d3 5910 	ldr.w	r5, [r3, #2320]	; 0x910
 80016fc:	f445 2500 	orr.w	r5, r5, #524288	; 0x80000
 8001700:	f8c3 5910 	str.w	r5, [r3, #2320]	; 0x910
      USBx_INEP(epnum)->DIEPTSIZ &= ~(USB_OTG_DIEPTSIZ_XFRSIZ);
 8001704:	f8d3 5910 	ldr.w	r5, [r3, #2320]	; 0x910
 8001708:	402f      	ands	r7, r5
 800170a:	f8c3 7910 	str.w	r7, [r3, #2320]	; 0x910
    if (dma == 1U)
 800170e:	2a01      	cmp	r2, #1
 8001710:	f04f 0320 	mov.w	r3, #32
 8001714:	d129      	bne.n	800176a <USB_EP0StartXfer+0x9a>
      if ((uint32_t)ep->dma_addr != 0U)
 8001716:	690a      	ldr	r2, [r1, #16]
 8001718:	b11a      	cbz	r2, 8001722 <USB_EP0StartXfer+0x52>
        USBx_INEP(epnum)->DIEPDMA = (uint32_t)(ep->dma_addr);
 800171a:	fb13 0304 	smlabb	r3, r3, r4, r0
 800171e:	f8c3 2914 	str.w	r2, [r3, #2324]	; 0x914
      USBx_INEP(epnum)->DIEPCTL |= (USB_OTG_DIEPCTL_CNAK | USB_OTG_DIEPCTL_EPENA);
 8001722:	eb00 1044 	add.w	r0, r0, r4, lsl #5
 8001726:	f8d0 2900 	ldr.w	r2, [r0, #2304]	; 0x900
 800172a:	f042 4204 	orr.w	r2, r2, #2214592512	; 0x84000000
 800172e:	f8c0 2900 	str.w	r2, [r0, #2304]	; 0x900
}
 8001732:	2000      	movs	r0, #0
 8001734:	bdf0      	pop	{r4, r5, r6, r7, pc}
      USBx_INEP(epnum)->DIEPTSIZ &= ~(USB_OTG_DIEPTSIZ_XFRSIZ);
 8001736:	f503 6310 	add.w	r3, r3, #2304	; 0x900
 800173a:	691d      	ldr	r5, [r3, #16]
 800173c:	402f      	ands	r7, r5
 800173e:	611f      	str	r7, [r3, #16]
      USBx_INEP(epnum)->DIEPTSIZ &= ~(USB_OTG_DIEPTSIZ_PKTCNT);
 8001740:	691d      	ldr	r5, [r3, #16]
 8001742:	f025 55ff 	bic.w	r5, r5, #534773760	; 0x1fe00000
 8001746:	f425 15c0 	bic.w	r5, r5, #1572864	; 0x180000
 800174a:	611d      	str	r5, [r3, #16]
      if (ep->xfer_len > ep->maxpacket)
 800174c:	688d      	ldr	r5, [r1, #8]
 800174e:	42ae      	cmp	r6, r5
        ep->xfer_len = ep->maxpacket;
 8001750:	bf88      	it	hi
 8001752:	614d      	strhi	r5, [r1, #20]
      USBx_INEP(epnum)->DIEPTSIZ |= (USB_OTG_DIEPTSIZ_PKTCNT & (1U << 19));
 8001754:	691d      	ldr	r5, [r3, #16]
 8001756:	f445 2500 	orr.w	r5, r5, #524288	; 0x80000
 800175a:	611d      	str	r5, [r3, #16]
      USBx_INEP(epnum)->DIEPTSIZ |= (USB_OTG_DIEPTSIZ_XFRSIZ & ep->xfer_len);
 800175c:	694d      	ldr	r5, [r1, #20]
 800175e:	691e      	ldr	r6, [r3, #16]
 8001760:	f3c5 0512 	ubfx	r5, r5, #0, #19
 8001764:	4335      	orrs	r5, r6
 8001766:	611d      	str	r5, [r3, #16]
 8001768:	e7d1      	b.n	800170e <USB_EP0StartXfer+0x3e>
      USBx_INEP(epnum)->DIEPCTL |= (USB_OTG_DIEPCTL_CNAK | USB_OTG_DIEPCTL_EPENA);
 800176a:	fb13 0404 	smlabb	r4, r3, r4, r0
 800176e:	f8d4 3900 	ldr.w	r3, [r4, #2304]	; 0x900
 8001772:	f043 4304 	orr.w	r3, r3, #2214592512	; 0x84000000
 8001776:	f8c4 3900 	str.w	r3, [r4, #2304]	; 0x900
      if (ep->xfer_len > 0U)
 800177a:	694b      	ldr	r3, [r1, #20]
 800177c:	2b00      	cmp	r3, #0
 800177e:	d0d8      	beq.n	8001732 <USB_EP0StartXfer+0x62>
        USBx_DEVICE->DIEPEMPMSK |= 1UL << (ep->num & EP_ADDR_MSK);
 8001780:	780a      	ldrb	r2, [r1, #0]
 8001782:	f8d0 3834 	ldr.w	r3, [r0, #2100]	; 0x834
 8001786:	f002 010f 	and.w	r1, r2, #15
 800178a:	2201      	movs	r2, #1
 800178c:	408a      	lsls	r2, r1
 800178e:	431a      	orrs	r2, r3
 8001790:	f8c0 2834 	str.w	r2, [r0, #2100]	; 0x834
 8001794:	e7cd      	b.n	8001732 <USB_EP0StartXfer+0x62>
    USBx_OUTEP(epnum)->DOEPTSIZ &= ~(USB_OTG_DOEPTSIZ_XFRSIZ);
 8001796:	fb13 0004 	smlabb	r0, r3, r4, r0
 800179a:	f500 6330 	add.w	r3, r0, #2816	; 0xb00
 800179e:	691c      	ldr	r4, [r3, #16]
 80017a0:	4027      	ands	r7, r4
 80017a2:	611f      	str	r7, [r3, #16]
    USBx_OUTEP(epnum)->DOEPTSIZ &= ~(USB_OTG_DOEPTSIZ_PKTCNT);
 80017a4:	691c      	ldr	r4, [r3, #16]
 80017a6:	f024 54ff 	bic.w	r4, r4, #534773760	; 0x1fe00000
 80017aa:	f424 14c0 	bic.w	r4, r4, #1572864	; 0x180000
 80017ae:	611c      	str	r4, [r3, #16]
 80017b0:	688c      	ldr	r4, [r1, #8]
    if (ep->xfer_len > 0U)
 80017b2:	b106      	cbz	r6, 80017b6 <USB_EP0StartXfer+0xe6>
      ep->xfer_len = ep->maxpacket;
 80017b4:	614c      	str	r4, [r1, #20]
    USBx_OUTEP(epnum)->DOEPTSIZ |= (USB_OTG_DOEPTSIZ_PKTCNT & (1U << 19));
 80017b6:	691d      	ldr	r5, [r3, #16]
 80017b8:	f445 2500 	orr.w	r5, r5, #524288	; 0x80000
 80017bc:	611d      	str	r5, [r3, #16]
    USBx_OUTEP(epnum)->DOEPTSIZ |= (USB_OTG_DOEPTSIZ_XFRSIZ & (ep->maxpacket));
 80017be:	691d      	ldr	r5, [r3, #16]
 80017c0:	f3c4 0412 	ubfx	r4, r4, #0, #19
 80017c4:	432c      	orrs	r4, r5
    if (dma == 1U)
 80017c6:	2a01      	cmp	r2, #1
    USBx_OUTEP(epnum)->DOEPTSIZ |= (USB_OTG_DOEPTSIZ_XFRSIZ & (ep->maxpacket));
 80017c8:	611c      	str	r4, [r3, #16]
    if (dma == 1U)
 80017ca:	d102      	bne.n	80017d2 <USB_EP0StartXfer+0x102>
      if ((uint32_t)ep->xfer_buff != 0U)
 80017cc:	68ca      	ldr	r2, [r1, #12]
 80017ce:	b102      	cbz	r2, 80017d2 <USB_EP0StartXfer+0x102>
        USBx_OUTEP(epnum)->DOEPDMA = (uint32_t)(ep->xfer_buff);
 80017d0:	615a      	str	r2, [r3, #20]
    USBx_OUTEP(epnum)->DOEPCTL |= (USB_OTG_DOEPCTL_CNAK | USB_OTG_DOEPCTL_EPENA);
 80017d2:	f8d0 3b00 	ldr.w	r3, [r0, #2816]	; 0xb00
 80017d6:	f043 4304 	orr.w	r3, r3, #2214592512	; 0x84000000
 80017da:	f8c0 3b00 	str.w	r3, [r0, #2816]	; 0xb00
 80017de:	e7a8      	b.n	8001732 <USB_EP0StartXfer+0x62>
 80017e0:	fff80000 	.word	0xfff80000

080017e4 <USB_WritePacket>:
{
 80017e4:	b510      	push	{r4, lr}
 80017e6:	f89d 4008 	ldrb.w	r4, [sp, #8]
  if (dma == 0U)
 80017ea:	b94c      	cbnz	r4, 8001800 <USB_WritePacket+0x1c>
    count32b = ((uint32_t)len + 3U) / 4U;
 80017ec:	3303      	adds	r3, #3
      USBx_DFIFO((uint32_t)ch_ep_num) = __UNALIGNED_UINT32_READ(pSrc);
 80017ee:	eb00 3002 	add.w	r0, r0, r2, lsl #12
 80017f2:	f023 0303 	bic.w	r3, r3, #3
 80017f6:	f500 5080 	add.w	r0, r0, #4096	; 0x1000
 80017fa:	440b      	add	r3, r1
    for (i = 0U; i < count32b; i++)
 80017fc:	4299      	cmp	r1, r3
 80017fe:	d101      	bne.n	8001804 <USB_WritePacket+0x20>
}
 8001800:	2000      	movs	r0, #0
 8001802:	bd10      	pop	{r4, pc}
      USBx_DFIFO((uint32_t)ch_ep_num) = __UNALIGNED_UINT32_READ(pSrc);
 8001804:	f851 2b04 	ldr.w	r2, [r1], #4
 8001808:	6002      	str	r2, [r0, #0]
 800180a:	e7f7      	b.n	80017fc <USB_WritePacket+0x18>

0800180c <USB_EPStartXfer>:
{
 800180c:	b5f7      	push	{r0, r1, r2, r4, r5, r6, r7, lr}
  if (ep->is_in == 1U)
 800180e:	784b      	ldrb	r3, [r1, #1]
  uint32_t epnum = (uint32_t)ep->num;
 8001810:	780e      	ldrb	r6, [r1, #0]
 8001812:	4f73      	ldr	r7, [pc, #460]	; (80019e0 <USB_EPStartXfer+0x1d4>)
  if (ep->is_in == 1U)
 8001814:	2b01      	cmp	r3, #1
 8001816:	f04f 0420 	mov.w	r4, #32
 800181a:	694b      	ldr	r3, [r1, #20]
      USBx_INEP(epnum)->DIEPTSIZ &= ~(USB_OTG_DIEPTSIZ_PKTCNT);
 800181c:	fb14 0406 	smlabb	r4, r4, r6, r0
  if (ep->is_in == 1U)
 8001820:	f040 8098 	bne.w	8001954 <USB_EPStartXfer+0x148>
    if (ep->xfer_len == 0U)
 8001824:	2b00      	cmp	r3, #0
 8001826:	d138      	bne.n	800189a <USB_EPStartXfer+0x8e>
      USBx_INEP(epnum)->DIEPTSIZ &= ~(USB_OTG_DIEPTSIZ_PKTCNT);
 8001828:	f504 6510 	add.w	r5, r4, #2304	; 0x900
 800182c:	f8d4 4910 	ldr.w	r4, [r4, #2320]	; 0x910
 8001830:	f024 54ff 	bic.w	r4, r4, #534773760	; 0x1fe00000
 8001834:	f424 14c0 	bic.w	r4, r4, #1572864	; 0x180000
 8001838:	612c      	str	r4, [r5, #16]
      USBx_INEP(epnum)->DIEPTSIZ |= (USB_OTG_DIEPTSIZ_PKTCNT & (1U << 19));
 800183a:	692c      	ldr	r4, [r5, #16]
 800183c:	f444 2400 	orr.w	r4, r4, #524288	; 0x80000
 8001840:	612c      	str	r4, [r5, #16]
      USBx_INEP(epnum)->DIEPTSIZ &= ~(USB_OTG_DIEPTSIZ_XFRSIZ);
 8001842:	692c      	ldr	r4, [r5, #16]
 8001844:	4027      	ands	r7, r4
 8001846:	612f      	str	r7, [r5, #16]
    if (dma == 1U)
 8001848:	2a01      	cmp	r2, #1
 800184a:	f04f 0420 	mov.w	r4, #32
 800184e:	d154      	bne.n	80018fa <USB_EPStartXfer+0xee>
      if ((uint32_t)ep->dma_addr != 0U)
 8001850:	690b      	ldr	r3, [r1, #16]
 8001852:	b11b      	cbz	r3, 800185c <USB_EPStartXfer+0x50>
        USBx_INEP(epnum)->DIEPDMA = (uint32_t)(ep->dma_addr);
 8001854:	fb14 0406 	smlabb	r4, r4, r6, r0
 8001858:	f8c4 3914 	str.w	r3, [r4, #2324]	; 0x914
      if (ep->type == EP_TYPE_ISOC)
 800185c:	78cb      	ldrb	r3, [r1, #3]
 800185e:	2b01      	cmp	r3, #1
 8001860:	d110      	bne.n	8001884 <USB_EPStartXfer+0x78>
        if ((USBx_DEVICE->DSTS & (1U << 8)) == 0U)
 8001862:	f8d0 3808 	ldr.w	r3, [r0, #2056]	; 0x808
 8001866:	f413 7f80 	tst.w	r3, #256	; 0x100
 800186a:	f04f 0320 	mov.w	r3, #32
          USBx_INEP(epnum)->DIEPCTL |= USB_OTG_DIEPCTL_SODDFRM;
 800186e:	fb13 0306 	smlabb	r3, r3, r6, r0
 8001872:	f8d3 2900 	ldr.w	r2, [r3, #2304]	; 0x900
 8001876:	bf0c      	ite	eq
 8001878:	f042 5200 	orreq.w	r2, r2, #536870912	; 0x20000000
          USBx_INEP(epnum)->DIEPCTL |= USB_OTG_DIEPCTL_SD0PID_SEVNFRM;
 800187c:	f042 5280 	orrne.w	r2, r2, #268435456	; 0x10000000
 8001880:	f8c3 2900 	str.w	r2, [r3, #2304]	; 0x900
      USBx_INEP(epnum)->DIEPCTL |= (USB_OTG_DIEPCTL_CNAK | USB_OTG_DIEPCTL_EPENA);
 8001884:	eb00 1046 	add.w	r0, r0, r6, lsl #5
 8001888:	f8d0 3900 	ldr.w	r3, [r0, #2304]	; 0x900
 800188c:	f043 4304 	orr.w	r3, r3, #2214592512	; 0x84000000
 8001890:	f8c0 3900 	str.w	r3, [r0, #2304]	; 0x900
}
 8001894:	2000      	movs	r0, #0
 8001896:	b003      	add	sp, #12
 8001898:	bdf0      	pop	{r4, r5, r6, r7, pc}
      USBx_INEP(epnum)->DIEPTSIZ &= ~(USB_OTG_DIEPTSIZ_XFRSIZ);
 800189a:	f8d4 5910 	ldr.w	r5, [r4, #2320]	; 0x910
 800189e:	402f      	ands	r7, r5
 80018a0:	f8c4 7910 	str.w	r7, [r4, #2320]	; 0x910
      USBx_INEP(epnum)->DIEPTSIZ &= ~(USB_OTG_DIEPTSIZ_PKTCNT);
 80018a4:	f8d4 5910 	ldr.w	r5, [r4, #2320]	; 0x910
      USBx_INEP(epnum)->DIEPTSIZ |= (USB_OTG_DIEPTSIZ_PKTCNT & (((ep->xfer_len + ep->maxpacket - 1U) / ep->maxpacket) << 19));
 80018a8:	688f      	ldr	r7, [r1, #8]
      USBx_INEP(epnum)->DIEPTSIZ &= ~(USB_OTG_DIEPTSIZ_PKTCNT);
 80018aa:	f025 55ff 	bic.w	r5, r5, #534773760	; 0x1fe00000
 80018ae:	f425 15c0 	bic.w	r5, r5, #1572864	; 0x180000
 80018b2:	f8c4 5910 	str.w	r5, [r4, #2320]	; 0x910
      USBx_INEP(epnum)->DIEPTSIZ |= (USB_OTG_DIEPTSIZ_PKTCNT & (((ep->xfer_len + ep->maxpacket - 1U) / ep->maxpacket) << 19));
 80018b6:	19dd      	adds	r5, r3, r7
 80018b8:	3d01      	subs	r5, #1
 80018ba:	fbb5 f7f7 	udiv	r7, r5, r7
 80018be:	4d49      	ldr	r5, [pc, #292]	; (80019e4 <USB_EPStartXfer+0x1d8>)
 80018c0:	f8d4 e910 	ldr.w	lr, [r4, #2320]	; 0x910
 80018c4:	ea05 45c7 	and.w	r5, r5, r7, lsl #19
 80018c8:	ea45 050e 	orr.w	r5, r5, lr
 80018cc:	f8c4 5910 	str.w	r5, [r4, #2320]	; 0x910
      USBx_INEP(epnum)->DIEPTSIZ |= (USB_OTG_DIEPTSIZ_XFRSIZ & ep->xfer_len);
 80018d0:	f8d4 7910 	ldr.w	r7, [r4, #2320]	; 0x910
 80018d4:	f3c3 0512 	ubfx	r5, r3, #0, #19
 80018d8:	433d      	orrs	r5, r7
 80018da:	f8c4 5910 	str.w	r5, [r4, #2320]	; 0x910
      if (ep->type == EP_TYPE_ISOC)
 80018de:	78cd      	ldrb	r5, [r1, #3]
 80018e0:	2d01      	cmp	r5, #1
      USBx_INEP(epnum)->DIEPTSIZ &= ~(USB_OTG_DIEPTSIZ_XFRSIZ);
 80018e2:	f504 6410 	add.w	r4, r4, #2304	; 0x900
      if (ep->type == EP_TYPE_ISOC)
 80018e6:	d1af      	bne.n	8001848 <USB_EPStartXfer+0x3c>
        USBx_INEP(epnum)->DIEPTSIZ &= ~(USB_OTG_DIEPTSIZ_MULCNT);
 80018e8:	6925      	ldr	r5, [r4, #16]
 80018ea:	f025 45c0 	bic.w	r5, r5, #1610612736	; 0x60000000
 80018ee:	6125      	str	r5, [r4, #16]
        USBx_INEP(epnum)->DIEPTSIZ |= (USB_OTG_DIEPTSIZ_MULCNT & (1U << 29));
 80018f0:	6925      	ldr	r5, [r4, #16]
 80018f2:	f045 5500 	orr.w	r5, r5, #536870912	; 0x20000000
 80018f6:	6125      	str	r5, [r4, #16]
 80018f8:	e7a6      	b.n	8001848 <USB_EPStartXfer+0x3c>
      USBx_INEP(epnum)->DIEPCTL |= (USB_OTG_DIEPCTL_CNAK | USB_OTG_DIEPCTL_EPENA);
 80018fa:	fb14 0406 	smlabb	r4, r4, r6, r0
 80018fe:	f8d4 5900 	ldr.w	r5, [r4, #2304]	; 0x900
 8001902:	f045 4504 	orr.w	r5, r5, #2214592512	; 0x84000000
 8001906:	f8c4 5900 	str.w	r5, [r4, #2304]	; 0x900
      if (ep->type != EP_TYPE_ISOC)
 800190a:	78cd      	ldrb	r5, [r1, #3]
 800190c:	2d01      	cmp	r5, #1
 800190e:	d00c      	beq.n	800192a <USB_EPStartXfer+0x11e>
        if (ep->xfer_len > 0U)
 8001910:	2b00      	cmp	r3, #0
 8001912:	d0bf      	beq.n	8001894 <USB_EPStartXfer+0x88>
          USBx_DEVICE->DIEPEMPMSK |= 1UL << (ep->num & EP_ADDR_MSK);
 8001914:	780b      	ldrb	r3, [r1, #0]
 8001916:	f8d0 4834 	ldr.w	r4, [r0, #2100]	; 0x834
 800191a:	f003 020f 	and.w	r2, r3, #15
 800191e:	2301      	movs	r3, #1
 8001920:	4093      	lsls	r3, r2
 8001922:	4323      	orrs	r3, r4
 8001924:	f8c0 3834 	str.w	r3, [r0, #2100]	; 0x834
 8001928:	e7b4      	b.n	8001894 <USB_EPStartXfer+0x88>
        if ((USBx_DEVICE->DSTS & (1U << 8)) == 0U)
 800192a:	f8d0 5808 	ldr.w	r5, [r0, #2056]	; 0x808
 800192e:	f415 7f80 	tst.w	r5, #256	; 0x100
          USBx_INEP(epnum)->DIEPCTL |= USB_OTG_DIEPCTL_SODDFRM;
 8001932:	f8d4 5900 	ldr.w	r5, [r4, #2304]	; 0x900
 8001936:	bf0c      	ite	eq
 8001938:	f045 5500 	orreq.w	r5, r5, #536870912	; 0x20000000
          USBx_INEP(epnum)->DIEPCTL |= USB_OTG_DIEPCTL_SD0PID_SEVNFRM;
 800193c:	f045 5580 	orrne.w	r5, r5, #268435456	; 0x10000000
 8001940:	f8c4 5900 	str.w	r5, [r4, #2304]	; 0x900
        (void)USB_WritePacket(USBx, ep->xfer_buff, ep->num, (uint16_t)ep->xfer_len, dma);
 8001944:	780c      	ldrb	r4, [r1, #0]
 8001946:	9200      	str	r2, [sp, #0]
 8001948:	b29b      	uxth	r3, r3
 800194a:	4622      	mov	r2, r4
 800194c:	68c9      	ldr	r1, [r1, #12]
 800194e:	f7ff ff49 	bl	80017e4 <USB_WritePacket>
 8001952:	e79f      	b.n	8001894 <USB_EPStartXfer+0x88>
    USBx_OUTEP(epnum)->DOEPTSIZ &= ~(USB_OTG_DOEPTSIZ_XFRSIZ);
 8001954:	f504 6630 	add.w	r6, r4, #2816	; 0xb00
 8001958:	6935      	ldr	r5, [r6, #16]
 800195a:	402f      	ands	r7, r5
 800195c:	6137      	str	r7, [r6, #16]
    USBx_OUTEP(epnum)->DOEPTSIZ &= ~(USB_OTG_DOEPTSIZ_PKTCNT);
 800195e:	6935      	ldr	r5, [r6, #16]
 8001960:	f025 55ff 	bic.w	r5, r5, #534773760	; 0x1fe00000
 8001964:	f425 15c0 	bic.w	r5, r5, #1572864	; 0x180000
 8001968:	6135      	str	r5, [r6, #16]
 800196a:	688d      	ldr	r5, [r1, #8]
    if (ep->xfer_len == 0U)
 800196c:	bb23      	cbnz	r3, 80019b8 <USB_EPStartXfer+0x1ac>
      USBx_OUTEP(epnum)->DOEPTSIZ |= (USB_OTG_DOEPTSIZ_XFRSIZ & ep->maxpacket);
 800196e:	6933      	ldr	r3, [r6, #16]
 8001970:	f3c5 0512 	ubfx	r5, r5, #0, #19
 8001974:	431d      	orrs	r5, r3
 8001976:	6135      	str	r5, [r6, #16]
      USBx_OUTEP(epnum)->DOEPTSIZ |= (USB_OTG_DOEPTSIZ_PKTCNT & (1U << 19));
 8001978:	6933      	ldr	r3, [r6, #16]
 800197a:	f443 2300 	orr.w	r3, r3, #524288	; 0x80000
    if (dma == 1U)
 800197e:	2a01      	cmp	r2, #1
      USBx_OUTEP(epnum)->DOEPTSIZ |= USB_OTG_DOEPTSIZ_XFRSIZ & (ep->maxpacket * pktcnt);
 8001980:	6133      	str	r3, [r6, #16]
    if (dma == 1U)
 8001982:	d102      	bne.n	800198a <USB_EPStartXfer+0x17e>
      if ((uint32_t)ep->xfer_buff != 0U)
 8001984:	68cb      	ldr	r3, [r1, #12]
 8001986:	b103      	cbz	r3, 800198a <USB_EPStartXfer+0x17e>
        USBx_OUTEP(epnum)->DOEPDMA = (uint32_t)(ep->xfer_buff);
 8001988:	6173      	str	r3, [r6, #20]
    if (ep->type == EP_TYPE_ISOC)
 800198a:	78cb      	ldrb	r3, [r1, #3]
 800198c:	2b01      	cmp	r3, #1
 800198e:	d10c      	bne.n	80019aa <USB_EPStartXfer+0x19e>
      if ((USBx_DEVICE->DSTS & (1U << 8)) == 0U)
 8001990:	f8d0 3808 	ldr.w	r3, [r0, #2056]	; 0x808
 8001994:	f413 7f80 	tst.w	r3, #256	; 0x100
        USBx_OUTEP(epnum)->DOEPCTL |= USB_OTG_DOEPCTL_SODDFRM;
 8001998:	f8d4 3b00 	ldr.w	r3, [r4, #2816]	; 0xb00
 800199c:	bf0c      	ite	eq
 800199e:	f043 5300 	orreq.w	r3, r3, #536870912	; 0x20000000
        USBx_OUTEP(epnum)->DOEPCTL |= USB_OTG_DOEPCTL_SD0PID_SEVNFRM;
 80019a2:	f043 5380 	orrne.w	r3, r3, #268435456	; 0x10000000
 80019a6:	f8c4 3b00 	str.w	r3, [r4, #2816]	; 0xb00
    USBx_OUTEP(epnum)->DOEPCTL |= (USB_OTG_DOEPCTL_CNAK | USB_OTG_DOEPCTL_EPENA);
 80019aa:	f8d4 3b00 	ldr.w	r3, [r4, #2816]	; 0xb00
 80019ae:	f043 4304 	orr.w	r3, r3, #2214592512	; 0x84000000
 80019b2:	f8c4 3b00 	str.w	r3, [r4, #2816]	; 0xb00
 80019b6:	e76d      	b.n	8001894 <USB_EPStartXfer+0x88>
      USBx_OUTEP(epnum)->DOEPTSIZ |= USB_OTG_DOEPTSIZ_PKTCNT & ((uint32_t)pktcnt << 19);
 80019b8:	4f0a      	ldr	r7, [pc, #40]	; (80019e4 <USB_EPStartXfer+0x1d8>)
 80019ba:	f8d6 e010 	ldr.w	lr, [r6, #16]
      pktcnt = (uint16_t)((ep->xfer_len + ep->maxpacket - 1U) / ep->maxpacket);
 80019be:	442b      	add	r3, r5
 80019c0:	3b01      	subs	r3, #1
 80019c2:	fbb3 f3f5 	udiv	r3, r3, r5
      USBx_OUTEP(epnum)->DOEPTSIZ |= USB_OTG_DOEPTSIZ_PKTCNT & ((uint32_t)pktcnt << 19);
 80019c6:	ea07 47c3 	and.w	r7, r7, r3, lsl #19
 80019ca:	ea47 070e 	orr.w	r7, r7, lr
 80019ce:	6137      	str	r7, [r6, #16]
      USBx_OUTEP(epnum)->DOEPTSIZ |= USB_OTG_DOEPTSIZ_XFRSIZ & (ep->maxpacket * pktcnt);
 80019d0:	b29b      	uxth	r3, r3
 80019d2:	6937      	ldr	r7, [r6, #16]
 80019d4:	436b      	muls	r3, r5
 80019d6:	f3c3 0312 	ubfx	r3, r3, #0, #19
 80019da:	433b      	orrs	r3, r7
 80019dc:	e7cf      	b.n	800197e <USB_EPStartXfer+0x172>
 80019de:	bf00      	nop
 80019e0:	fff80000 	.word	0xfff80000
 80019e4:	1ff80000 	.word	0x1ff80000

080019e8 <USB_ReadPacket>:
  uint32_t count32b = ((uint32_t)len + 3U) / 4U;
 80019e8:	3203      	adds	r2, #3
 80019ea:	f022 0203 	bic.w	r2, r2, #3
 80019ee:	440a      	add	r2, r1
    __UNALIGNED_UINT32_WRITE(pDest, USBx_DFIFO(0U));
 80019f0:	f500 5080 	add.w	r0, r0, #4096	; 0x1000
  for (i = 0U; i < count32b; i++)
 80019f4:	4291      	cmp	r1, r2
 80019f6:	d101      	bne.n	80019fc <USB_ReadPacket+0x14>
}
 80019f8:	4608      	mov	r0, r1
 80019fa:	4770      	bx	lr
    __UNALIGNED_UINT32_WRITE(pDest, USBx_DFIFO(0U));
 80019fc:	6803      	ldr	r3, [r0, #0]
 80019fe:	f841 3b04 	str.w	r3, [r1], #4
 8001a02:	e7f7      	b.n	80019f4 <USB_ReadPacket+0xc>

08001a04 <USB_EPSetStall>:
  if (ep->is_in == 1U)
 8001a04:	784b      	ldrb	r3, [r1, #1]
  uint32_t epnum = (uint32_t)ep->num;
 8001a06:	780a      	ldrb	r2, [r1, #0]
  if (ep->is_in == 1U)
 8001a08:	2b01      	cmp	r3, #1
 8001a0a:	f04f 0320 	mov.w	r3, #32
    if (((USBx_INEP(epnum)->DIEPCTL & USB_OTG_DIEPCTL_EPENA) == 0U) && (epnum != 0U))
 8001a0e:	fb13 0002 	smlabb	r0, r3, r2, r0
  if (ep->is_in == 1U)
 8001a12:	d112      	bne.n	8001a3a <USB_EPSetStall+0x36>
    if (((USBx_INEP(epnum)->DIEPCTL & USB_OTG_DIEPCTL_EPENA) == 0U) && (epnum != 0U))
 8001a14:	f8d0 3900 	ldr.w	r3, [r0, #2304]	; 0x900
 8001a18:	2b00      	cmp	r3, #0
 8001a1a:	db06      	blt.n	8001a2a <USB_EPSetStall+0x26>
 8001a1c:	b12a      	cbz	r2, 8001a2a <USB_EPSetStall+0x26>
      USBx_INEP(epnum)->DIEPCTL &= ~(USB_OTG_DIEPCTL_EPDIS);
 8001a1e:	f8d0 3900 	ldr.w	r3, [r0, #2304]	; 0x900
 8001a22:	f023 4380 	bic.w	r3, r3, #1073741824	; 0x40000000
 8001a26:	f8c0 3900 	str.w	r3, [r0, #2304]	; 0x900
    USBx_INEP(epnum)->DIEPCTL |= USB_OTG_DIEPCTL_STALL;
 8001a2a:	f8d0 3900 	ldr.w	r3, [r0, #2304]	; 0x900
 8001a2e:	f443 1300 	orr.w	r3, r3, #2097152	; 0x200000
 8001a32:	f8c0 3900 	str.w	r3, [r0, #2304]	; 0x900
}
 8001a36:	2000      	movs	r0, #0
 8001a38:	4770      	bx	lr
    if (((USBx_OUTEP(epnum)->DOEPCTL & USB_OTG_DOEPCTL_EPENA) == 0U) && (epnum != 0U))
 8001a3a:	f8d0 3b00 	ldr.w	r3, [r0, #2816]	; 0xb00
 8001a3e:	2b00      	cmp	r3, #0
 8001a40:	db06      	blt.n	8001a50 <USB_EPSetStall+0x4c>
 8001a42:	b12a      	cbz	r2, 8001a50 <USB_EPSetStall+0x4c>
      USBx_OUTEP(epnum)->DOEPCTL &= ~(USB_OTG_DOEPCTL_EPDIS);
 8001a44:	f8d0 3b00 	ldr.w	r3, [r0, #2816]	; 0xb00
 8001a48:	f023 4380 	bic.w	r3, r3, #1073741824	; 0x40000000
 8001a4c:	f8c0 3b00 	str.w	r3, [r0, #2816]	; 0xb00
    USBx_OUTEP(epnum)->DOEPCTL |= USB_OTG_DOEPCTL_STALL;
 8001a50:	f8d0 3b00 	ldr.w	r3, [r0, #2816]	; 0xb00
 8001a54:	f443 1300 	orr.w	r3, r3, #2097152	; 0x200000
 8001a58:	f8c0 3b00 	str.w	r3, [r0, #2816]	; 0xb00
 8001a5c:	e7eb      	b.n	8001a36 <USB_EPSetStall+0x32>

08001a5e <USB_EPClearStall>:
  if (ep->is_in == 1U)
 8001a5e:	784b      	ldrb	r3, [r1, #1]
  uint32_t epnum = (uint32_t)ep->num;
 8001a60:	780a      	ldrb	r2, [r1, #0]
  if (ep->is_in == 1U)
 8001a62:	2b01      	cmp	r3, #1
 8001a64:	f04f 0320 	mov.w	r3, #32
    USBx_INEP(epnum)->DIEPCTL &= ~USB_OTG_DIEPCTL_STALL;
 8001a68:	fb13 0002 	smlabb	r0, r3, r2, r0
  if (ep->is_in == 1U)
 8001a6c:	d111      	bne.n	8001a92 <USB_EPClearStall+0x34>
    USBx_INEP(epnum)->DIEPCTL &= ~USB_OTG_DIEPCTL_STALL;
 8001a6e:	f8d0 3900 	ldr.w	r3, [r0, #2304]	; 0x900
 8001a72:	f423 1300 	bic.w	r3, r3, #2097152	; 0x200000
 8001a76:	f8c0 3900 	str.w	r3, [r0, #2304]	; 0x900
    if ((ep->type == EP_TYPE_INTR) || (ep->type == EP_TYPE_BULK))
 8001a7a:	78cb      	ldrb	r3, [r1, #3]
 8001a7c:	3b02      	subs	r3, #2
 8001a7e:	2b01      	cmp	r3, #1
 8001a80:	d805      	bhi.n	8001a8e <USB_EPClearStall+0x30>
      USBx_INEP(epnum)->DIEPCTL |= USB_OTG_DIEPCTL_SD0PID_SEVNFRM; /* DATA0 */
 8001a82:	f8d0 3900 	ldr.w	r3, [r0, #2304]	; 0x900
 8001a86:	f043 5380 	orr.w	r3, r3, #268435456	; 0x10000000
 8001a8a:	f8c0 3900 	str.w	r3, [r0, #2304]	; 0x900
}
 8001a8e:	2000      	movs	r0, #0
 8001a90:	4770      	bx	lr
    USBx_OUTEP(epnum)->DOEPCTL &= ~USB_OTG_DOEPCTL_STALL;
 8001a92:	f8d0 3b00 	ldr.w	r3, [r0, #2816]	; 0xb00
 8001a96:	f423 1300 	bic.w	r3, r3, #2097152	; 0x200000
 8001a9a:	f8c0 3b00 	str.w	r3, [r0, #2816]	; 0xb00
    if ((ep->type == EP_TYPE_INTR) || (ep->type == EP_TYPE_BULK))
 8001a9e:	78cb      	ldrb	r3, [r1, #3]
 8001aa0:	3b02      	subs	r3, #2
 8001aa2:	2b01      	cmp	r3, #1
      USBx_OUTEP(epnum)->DOEPCTL |= USB_OTG_DOEPCTL_SD0PID_SEVNFRM; /* DATA0 */
 8001aa4:	bf9e      	ittt	ls
 8001aa6:	f8d0 3b00 	ldrls.w	r3, [r0, #2816]	; 0xb00
 8001aaa:	f043 5380 	orrls.w	r3, r3, #268435456	; 0x10000000
 8001aae:	f8c0 3b00 	strls.w	r3, [r0, #2816]	; 0xb00
 8001ab2:	e7ec      	b.n	8001a8e <USB_EPClearStall+0x30>

08001ab4 <USB_SetDevAddress>:
  USBx_DEVICE->DCFG &= ~(USB_OTG_DCFG_DAD);
 8001ab4:	f8d0 3800 	ldr.w	r3, [r0, #2048]	; 0x800
 8001ab8:	f423 63fe 	bic.w	r3, r3, #2032	; 0x7f0
 8001abc:	f8c0 3800 	str.w	r3, [r0, #2048]	; 0x800
  USBx_DEVICE->DCFG |= ((uint32_t)address << 4) & USB_OTG_DCFG_DAD;
 8001ac0:	f8d0 3800 	ldr.w	r3, [r0, #2048]	; 0x800
 8001ac4:	0109      	lsls	r1, r1, #4
 8001ac6:	f401 61fe 	and.w	r1, r1, #2032	; 0x7f0
 8001aca:	4319      	orrs	r1, r3
 8001acc:	f8c0 1800 	str.w	r1, [r0, #2048]	; 0x800
}
 8001ad0:	2000      	movs	r0, #0
 8001ad2:	4770      	bx	lr

08001ad4 <USB_DevConnect>:
{
 8001ad4:	b508      	push	{r3, lr}
  USBx_DEVICE->DCTL &= ~USB_OTG_DCTL_SDIS;
 8001ad6:	f8d0 3804 	ldr.w	r3, [r0, #2052]	; 0x804
 8001ada:	f023 0302 	bic.w	r3, r3, #2
 8001ade:	f8c0 3804 	str.w	r3, [r0, #2052]	; 0x804
  HAL_Delay(3U);
 8001ae2:	2003      	movs	r0, #3
 8001ae4:	f7fe fbc8 	bl	8000278 <HAL_Delay>
}
 8001ae8:	2000      	movs	r0, #0
 8001aea:	bd08      	pop	{r3, pc}

08001aec <USB_DevDisconnect>:
{
 8001aec:	b508      	push	{r3, lr}
  USBx_DEVICE->DCTL |= USB_OTG_DCTL_SDIS;
 8001aee:	f8d0 3804 	ldr.w	r3, [r0, #2052]	; 0x804
 8001af2:	f043 0302 	orr.w	r3, r3, #2
 8001af6:	f8c0 3804 	str.w	r3, [r0, #2052]	; 0x804
  HAL_Delay(3U);
 8001afa:	2003      	movs	r0, #3
 8001afc:	f7fe fbbc 	bl	8000278 <HAL_Delay>
}
 8001b00:	2000      	movs	r0, #0
 8001b02:	bd08      	pop	{r3, pc}

08001b04 <USB_ReadInterrupts>:
  tmpreg = USBx->GINTSTS;
 8001b04:	6942      	ldr	r2, [r0, #20]
  tmpreg &= USBx->GINTMSK;
 8001b06:	6980      	ldr	r0, [r0, #24]
}
 8001b08:	4010      	ands	r0, r2
 8001b0a:	4770      	bx	lr

08001b0c <USB_ReadDevAllOutEpInterrupt>:
  tmpreg  = USBx_DEVICE->DAINT;
 8001b0c:	f8d0 3818 	ldr.w	r3, [r0, #2072]	; 0x818
 8001b10:	f500 6000 	add.w	r0, r0, #2048	; 0x800
  tmpreg &= USBx_DEVICE->DAINTMSK;
 8001b14:	69c0      	ldr	r0, [r0, #28]
 8001b16:	4018      	ands	r0, r3
}
 8001b18:	0c00      	lsrs	r0, r0, #16
 8001b1a:	4770      	bx	lr

08001b1c <USB_ReadDevAllInEpInterrupt>:
  tmpreg  = USBx_DEVICE->DAINT;
 8001b1c:	f8d0 3818 	ldr.w	r3, [r0, #2072]	; 0x818
 8001b20:	f500 6000 	add.w	r0, r0, #2048	; 0x800
  tmpreg &= USBx_DEVICE->DAINTMSK;
 8001b24:	69c0      	ldr	r0, [r0, #28]
 8001b26:	4018      	ands	r0, r3
}
 8001b28:	b280      	uxth	r0, r0
 8001b2a:	4770      	bx	lr

08001b2c <USB_ReadDevOutEPInterrupt>:
  tmpreg  = USBx_OUTEP((uint32_t)epnum)->DOEPINT;
 8001b2c:	eb00 1141 	add.w	r1, r0, r1, lsl #5
  tmpreg &= USBx_DEVICE->DOEPMSK;
 8001b30:	f500 6000 	add.w	r0, r0, #2048	; 0x800
  tmpreg  = USBx_OUTEP((uint32_t)epnum)->DOEPINT;
 8001b34:	f8d1 2b08 	ldr.w	r2, [r1, #2824]	; 0xb08
  tmpreg &= USBx_DEVICE->DOEPMSK;
 8001b38:	6940      	ldr	r0, [r0, #20]
}
 8001b3a:	4010      	ands	r0, r2
 8001b3c:	4770      	bx	lr

08001b3e <USB_ReadDevInEPInterrupt>:
{
 8001b3e:	b510      	push	{r4, lr}
  msk = USBx_DEVICE->DIEPMSK;
 8001b40:	f8d0 4810 	ldr.w	r4, [r0, #2064]	; 0x810
  emp = USBx_DEVICE->DIEPEMPMSK;
 8001b44:	f8d0 3834 	ldr.w	r3, [r0, #2100]	; 0x834
  tmpreg = USBx_INEP((uint32_t)epnum)->DIEPINT & msk;
 8001b48:	eb00 1041 	add.w	r0, r0, r1, lsl #5
  msk |= ((emp >> (epnum & EP_ADDR_MSK)) & 0x1U) << 7;
 8001b4c:	f001 010f 	and.w	r1, r1, #15
 8001b50:	40cb      	lsrs	r3, r1
  tmpreg = USBx_INEP((uint32_t)epnum)->DIEPINT & msk;
 8001b52:	f500 6010 	add.w	r0, r0, #2304	; 0x900
  msk |= ((emp >> (epnum & EP_ADDR_MSK)) & 0x1U) << 7;
 8001b56:	01db      	lsls	r3, r3, #7
  tmpreg = USBx_INEP((uint32_t)epnum)->DIEPINT & msk;
 8001b58:	6880      	ldr	r0, [r0, #8]
  msk |= ((emp >> (epnum & EP_ADDR_MSK)) & 0x1U) << 7;
 8001b5a:	b2db      	uxtb	r3, r3
 8001b5c:	4323      	orrs	r3, r4
}
 8001b5e:	4018      	ands	r0, r3
 8001b60:	bd10      	pop	{r4, pc}

08001b62 <USB_GetMode>:
  return ((USBx->GINTSTS) & 0x1U);
 8001b62:	6940      	ldr	r0, [r0, #20]
}
 8001b64:	f000 0001 	and.w	r0, r0, #1
 8001b68:	4770      	bx	lr

08001b6a <USB_ActivateSetup>:
  USBx_INEP(0U)->DIEPCTL &= ~USB_OTG_DIEPCTL_MPSIZ;
 8001b6a:	f8d0 3900 	ldr.w	r3, [r0, #2304]	; 0x900
 8001b6e:	f423 63ff 	bic.w	r3, r3, #2040	; 0x7f8
 8001b72:	f023 0307 	bic.w	r3, r3, #7
 8001b76:	f8c0 3900 	str.w	r3, [r0, #2304]	; 0x900
  USBx_DEVICE->DCTL |= USB_OTG_DCTL_CGINAK;
 8001b7a:	f8d0 3804 	ldr.w	r3, [r0, #2052]	; 0x804
 8001b7e:	f443 7380 	orr.w	r3, r3, #256	; 0x100
 8001b82:	f8c0 3804 	str.w	r3, [r0, #2052]	; 0x804
}
 8001b86:	2000      	movs	r0, #0
 8001b88:	4770      	bx	lr
	...

08001b8c <USB_EP0_OutStart>:
{
 8001b8c:	b510      	push	{r4, lr}
  if (gSNPSiD > USB_OTG_CORE_ID_300A)
 8001b8e:	4b16      	ldr	r3, [pc, #88]	; (8001be8 <USB_EP0_OutStart+0x5c>)
  uint32_t gSNPSiD = *(__IO uint32_t *)(&USBx->CID + 0x1U);
 8001b90:	6c04      	ldr	r4, [r0, #64]	; 0x40
  if (gSNPSiD > USB_OTG_CORE_ID_300A)
 8001b92:	429c      	cmp	r4, r3
 8001b94:	d903      	bls.n	8001b9e <USB_EP0_OutStart+0x12>
    if ((USBx_OUTEP(0U)->DOEPCTL & USB_OTG_DOEPCTL_EPENA) == USB_OTG_DOEPCTL_EPENA)
 8001b96:	f8d0 3b00 	ldr.w	r3, [r0, #2816]	; 0xb00
 8001b9a:	2b00      	cmp	r3, #0
 8001b9c:	db21      	blt.n	8001be2 <USB_EP0_OutStart+0x56>
  USBx_OUTEP(0U)->DOEPTSIZ = 0U;
 8001b9e:	2400      	movs	r4, #0
 8001ba0:	f8c0 4b10 	str.w	r4, [r0, #2832]	; 0xb10
  USBx_OUTEP(0U)->DOEPTSIZ |= (USB_OTG_DOEPTSIZ_PKTCNT & (1U << 19));
 8001ba4:	f8d0 4b10 	ldr.w	r4, [r0, #2832]	; 0xb10
 8001ba8:	f444 2400 	orr.w	r4, r4, #524288	; 0x80000
 8001bac:	f8c0 4b10 	str.w	r4, [r0, #2832]	; 0xb10
  USBx_OUTEP(0U)->DOEPTSIZ |= (3U * 8U);
 8001bb0:	f8d0 4b10 	ldr.w	r4, [r0, #2832]	; 0xb10
 8001bb4:	f044 0418 	orr.w	r4, r4, #24
 8001bb8:	f8c0 4b10 	str.w	r4, [r0, #2832]	; 0xb10
  USBx_OUTEP(0U)->DOEPTSIZ |=  USB_OTG_DOEPTSIZ_STUPCNT;
 8001bbc:	f8d0 4b10 	ldr.w	r4, [r0, #2832]	; 0xb10
  if (dma == 1U)
 8001bc0:	2901      	cmp	r1, #1
  USBx_OUTEP(0U)->DOEPTSIZ |=  USB_OTG_DOEPTSIZ_STUPCNT;
 8001bc2:	f044 44c0 	orr.w	r4, r4, #1610612736	; 0x60000000
 8001bc6:	f8c0 4b10 	str.w	r4, [r0, #2832]	; 0xb10
    USBx_OUTEP(0U)->DOEPDMA = (uint32_t)psetup;
 8001bca:	bf08      	it	eq
 8001bcc:	f8c0 2b14 	streq.w	r2, [r0, #2836]	; 0xb14
  USBx_OUTEP(0U)->DOEPTSIZ = 0U;
 8001bd0:	f500 6330 	add.w	r3, r0, #2816	; 0xb00
    USBx_OUTEP(0U)->DOEPCTL |= USB_OTG_DOEPCTL_EPENA | USB_OTG_DOEPCTL_USBAEP;
 8001bd4:	bf02      	ittt	eq
 8001bd6:	f8d0 3b00 	ldreq.w	r3, [r0, #2816]	; 0xb00
 8001bda:	f043 2380 	orreq.w	r3, r3, #2147516416	; 0x80008000
 8001bde:	f8c0 3b00 	streq.w	r3, [r0, #2816]	; 0xb00
}
 8001be2:	2000      	movs	r0, #0
 8001be4:	bd10      	pop	{r4, pc}
 8001be6:	bf00      	nop
 8001be8:	4f54300a 	.word	0x4f54300a

08001bec <LL_SetSystemCoreClock>:
  * @retval None
  */
void LL_SetSystemCoreClock(uint32_t HCLKFrequency)
{
  /* HCLK clock frequency */
  SystemCoreClock = HCLKFrequency;
 8001bec:	4b01      	ldr	r3, [pc, #4]	; (8001bf4 <LL_SetSystemCoreClock+0x8>)
 8001bee:	6018      	str	r0, [r3, #0]
 8001bf0:	4770      	bx	lr
 8001bf2:	bf00      	nop
 8001bf4:	20000120 	.word	0x20000120

08001bf8 <USBD_CDC_EP0_RxReady>:
  */
static uint8_t USBD_CDC_EP0_RxReady(USBD_HandleTypeDef *pdev)
{
  USBD_CDC_HandleTypeDef *hcdc = (USBD_CDC_HandleTypeDef *)pdev->pClassData;

  if ((pdev->pUserData != NULL) && (hcdc->CmdOpCode != 0xFFU))
 8001bf8:	f8d0 32c0 	ldr.w	r3, [r0, #704]	; 0x2c0
{
 8001bfc:	b510      	push	{r4, lr}
  USBD_CDC_HandleTypeDef *hcdc = (USBD_CDC_HandleTypeDef *)pdev->pClassData;
 8001bfe:	f8d0 42bc 	ldr.w	r4, [r0, #700]	; 0x2bc
  if ((pdev->pUserData != NULL) && (hcdc->CmdOpCode != 0xFFU))
 8001c02:	b15b      	cbz	r3, 8001c1c <USBD_CDC_EP0_RxReady+0x24>
 8001c04:	f894 0200 	ldrb.w	r0, [r4, #512]	; 0x200
 8001c08:	28ff      	cmp	r0, #255	; 0xff
 8001c0a:	d007      	beq.n	8001c1c <USBD_CDC_EP0_RxReady+0x24>
  {
    ((USBD_CDC_ItfTypeDef *)pdev->pUserData)->Control(hcdc->CmdOpCode,
 8001c0c:	689b      	ldr	r3, [r3, #8]
 8001c0e:	f894 2201 	ldrb.w	r2, [r4, #513]	; 0x201
 8001c12:	4621      	mov	r1, r4
 8001c14:	4798      	blx	r3
                                                      (uint8_t *)hcdc->data,
                                                      (uint16_t)hcdc->CmdLength);
    hcdc->CmdOpCode = 0xFFU;
 8001c16:	23ff      	movs	r3, #255	; 0xff
 8001c18:	f884 3200 	strb.w	r3, [r4, #512]	; 0x200

  }

  return (uint8_t)USBD_OK;
}
 8001c1c:	2000      	movs	r0, #0
 8001c1e:	bd10      	pop	{r4, pc}

08001c20 <USBD_CDC_GetFSCfgDesc>:
  * @param  length : pointer data length
  * @retval pointer to descriptor buffer
  */
static uint8_t *USBD_CDC_GetFSCfgDesc(uint16_t *length)
{
  *length = (uint16_t)sizeof(USBD_CDC_CfgFSDesc);
 8001c20:	2343      	movs	r3, #67	; 0x43
 8001c22:	8003      	strh	r3, [r0, #0]

  return USBD_CDC_CfgFSDesc;
}
 8001c24:	4800      	ldr	r0, [pc, #0]	; (8001c28 <USBD_CDC_GetFSCfgDesc+0x8>)
 8001c26:	4770      	bx	lr
 8001c28:	20000040 	.word	0x20000040

08001c2c <USBD_CDC_GetHSCfgDesc>:
  * @param  length : pointer data length
  * @retval pointer to descriptor buffer
  */
static uint8_t *USBD_CDC_GetHSCfgDesc(uint16_t *length)
{
  *length = (uint16_t)sizeof(USBD_CDC_CfgHSDesc);
 8001c2c:	2343      	movs	r3, #67	; 0x43
 8001c2e:	8003      	strh	r3, [r0, #0]

  return USBD_CDC_CfgHSDesc;
}
 8001c30:	4800      	ldr	r0, [pc, #0]	; (8001c34 <USBD_CDC_GetHSCfgDesc+0x8>)
 8001c32:	4770      	bx	lr
 8001c34:	20000084 	.word	0x20000084

08001c38 <USBD_CDC_GetOtherSpeedCfgDesc>:
  * @param  length : pointer data length
  * @retval pointer to descriptor buffer
  */
static uint8_t *USBD_CDC_GetOtherSpeedCfgDesc(uint16_t *length)
{
  *length = (uint16_t)sizeof(USBD_CDC_OtherSpeedCfgDesc);
 8001c38:	2343      	movs	r3, #67	; 0x43
 8001c3a:	8003      	strh	r3, [r0, #0]

  return USBD_CDC_OtherSpeedCfgDesc;
}
 8001c3c:	4800      	ldr	r0, [pc, #0]	; (8001c40 <USBD_CDC_GetOtherSpeedCfgDesc+0x8>)
 8001c3e:	4770      	bx	lr
 8001c40:	200000d4 	.word	0x200000d4

08001c44 <USBD_CDC_GetDeviceQualifierDescriptor>:
* @param  length : pointer data length
* @retval pointer to descriptor buffer
*/
uint8_t *USBD_CDC_GetDeviceQualifierDescriptor(uint16_t *length)
{
  *length = (uint16_t)sizeof(USBD_CDC_DeviceQualifierDesc);
 8001c44:	230a      	movs	r3, #10
 8001c46:	8003      	strh	r3, [r0, #0]

  return USBD_CDC_DeviceQualifierDesc;
}
 8001c48:	4800      	ldr	r0, [pc, #0]	; (8001c4c <USBD_CDC_GetDeviceQualifierDescriptor+0x8>)
 8001c4a:	4770      	bx	lr
 8001c4c:	200000c8 	.word	0x200000c8

08001c50 <USBD_CDC_DataOut>:
{
 8001c50:	b538      	push	{r3, r4, r5, lr}
  USBD_CDC_HandleTypeDef *hcdc = (USBD_CDC_HandleTypeDef *)pdev->pClassData;
 8001c52:	f8d0 42bc 	ldr.w	r4, [r0, #700]	; 0x2bc
{
 8001c56:	4605      	mov	r5, r0
  if (pdev->pClassData == NULL)
 8001c58:	b16c      	cbz	r4, 8001c76 <USBD_CDC_DataOut+0x26>
  hcdc->RxLength = USBD_LL_GetRxDataSize(pdev, epnum);
 8001c5a:	f001 f89b 	bl	8002d94 <USBD_LL_GetRxDataSize>
  ((USBD_CDC_ItfTypeDef *)pdev->pUserData)->Receive(hcdc->RxBuffer, &hcdc->RxLength);
 8001c5e:	f8d5 32c0 	ldr.w	r3, [r5, #704]	; 0x2c0
  hcdc->RxLength = USBD_LL_GetRxDataSize(pdev, epnum);
 8001c62:	f8c4 020c 	str.w	r0, [r4, #524]	; 0x20c
  ((USBD_CDC_ItfTypeDef *)pdev->pUserData)->Receive(hcdc->RxBuffer, &hcdc->RxLength);
 8001c66:	68db      	ldr	r3, [r3, #12]
 8001c68:	f8d4 0204 	ldr.w	r0, [r4, #516]	; 0x204
 8001c6c:	f504 7103 	add.w	r1, r4, #524	; 0x20c
 8001c70:	4798      	blx	r3
  return (uint8_t)USBD_OK;
 8001c72:	2000      	movs	r0, #0
 8001c74:	bd38      	pop	{r3, r4, r5, pc}
    return (uint8_t)USBD_FAIL;
 8001c76:	2003      	movs	r0, #3
}
 8001c78:	bd38      	pop	{r3, r4, r5, pc}

08001c7a <USBD_CDC_DataIn>:
{
 8001c7a:	b5f8      	push	{r3, r4, r5, r6, r7, lr}
  if (pdev->pClassData == NULL)
 8001c7c:	f8d0 32bc 	ldr.w	r3, [r0, #700]	; 0x2bc
{
 8001c80:	4605      	mov	r5, r0
 8001c82:	460a      	mov	r2, r1
  if (pdev->pClassData == NULL)
 8001c84:	b323      	cbz	r3, 8001cd0 <USBD_CDC_DataIn+0x56>
  if ((pdev->ep_in[epnum].total_length > 0U) &&
 8001c86:	2614      	movs	r6, #20
 8001c88:	fb06 0601 	mla	r6, r6, r1, r0
 8001c8c:	69b7      	ldr	r7, [r6, #24]
 8001c8e:	b19f      	cbz	r7, 8001cb8 <USBD_CDC_DataIn+0x3e>
      ((pdev->ep_in[epnum].total_length % hpcd->IN_ep[epnum].maxpacket) == 0U))
 8001c90:	f8d0 42c4 	ldr.w	r4, [r0, #708]	; 0x2c4
 8001c94:	f04f 0e1c 	mov.w	lr, #28
 8001c98:	fb0e 4401 	mla	r4, lr, r1, r4
 8001c9c:	f8d4 e044 	ldr.w	lr, [r4, #68]	; 0x44
 8001ca0:	fbb7 f4fe 	udiv	r4, r7, lr
 8001ca4:	fb0e 7414 	mls	r4, lr, r4, r7
  if ((pdev->ep_in[epnum].total_length > 0U) &&
 8001ca8:	b934      	cbnz	r4, 8001cb8 <USBD_CDC_DataIn+0x3e>
    pdev->ep_in[epnum].total_length = 0U;
 8001caa:	61b4      	str	r4, [r6, #24]
    (void)USBD_LL_Transmit(pdev, epnum, NULL, 0U);
 8001cac:	4623      	mov	r3, r4
 8001cae:	4622      	mov	r2, r4
 8001cb0:	f001 f854 	bl	8002d5c <USBD_LL_Transmit>
  return (uint8_t)USBD_OK;
 8001cb4:	4620      	mov	r0, r4
 8001cb6:	bdf8      	pop	{r3, r4, r5, r6, r7, pc}
    ((USBD_CDC_ItfTypeDef *)pdev->pUserData)->TransmitCplt(hcdc->TxBuffer, &hcdc->TxLength, epnum);
 8001cb8:	f8d5 12c0 	ldr.w	r1, [r5, #704]	; 0x2c0
 8001cbc:	f8d3 0208 	ldr.w	r0, [r3, #520]	; 0x208
 8001cc0:	690d      	ldr	r5, [r1, #16]
    hcdc->TxState = 0U;
 8001cc2:	2400      	movs	r4, #0
 8001cc4:	f8c3 4214 	str.w	r4, [r3, #532]	; 0x214
    ((USBD_CDC_ItfTypeDef *)pdev->pUserData)->TransmitCplt(hcdc->TxBuffer, &hcdc->TxLength, epnum);
 8001cc8:	f503 7104 	add.w	r1, r3, #528	; 0x210
 8001ccc:	47a8      	blx	r5
 8001cce:	e7f1      	b.n	8001cb4 <USBD_CDC_DataIn+0x3a>
    return (uint8_t)USBD_FAIL;
 8001cd0:	2003      	movs	r0, #3
}
 8001cd2:	bdf8      	pop	{r3, r4, r5, r6, r7, pc}

08001cd4 <USBD_CDC_Setup>:
{
 8001cd4:	e92d 43f7 	stmdb	sp!, {r0, r1, r2, r4, r5, r6, r7, r8, r9, lr}
  switch (req->bmRequest & USB_REQ_TYPE_MASK)
 8001cd8:	780a      	ldrb	r2, [r1, #0]
  USBD_CDC_HandleTypeDef *hcdc = (USBD_CDC_HandleTypeDef *)pdev->pClassData;
 8001cda:	f8d0 72bc 	ldr.w	r7, [r0, #700]	; 0x2bc
  uint8_t ifalt = 0U;
 8001cde:	f04f 0800 	mov.w	r8, #0
  switch (req->bmRequest & USB_REQ_TYPE_MASK)
 8001ce2:	f012 0360 	ands.w	r3, r2, #96	; 0x60
{
 8001ce6:	4605      	mov	r5, r0
 8001ce8:	460e      	mov	r6, r1
  uint8_t ifalt = 0U;
 8001cea:	f88d 8005 	strb.w	r8, [sp, #5]
  uint16_t status_info = 0U;
 8001cee:	f8ad 8006 	strh.w	r8, [sp, #6]
  switch (req->bmRequest & USB_REQ_TYPE_MASK)
 8001cf2:	d025      	beq.n	8001d40 <USBD_CDC_Setup+0x6c>
 8001cf4:	2b20      	cmp	r3, #32
 8001cf6:	d157      	bne.n	8001da8 <USBD_CDC_Setup+0xd4>
    if (req->wLength != 0U)
 8001cf8:	88cc      	ldrh	r4, [r1, #6]
 8001cfa:	784b      	ldrb	r3, [r1, #1]
 8001cfc:	b1cc      	cbz	r4, 8001d32 <USBD_CDC_Setup+0x5e>
      if ((req->bmRequest & 0x80U) != 0U)
 8001cfe:	0612      	lsls	r2, r2, #24
 8001d00:	d50d      	bpl.n	8001d1e <USBD_CDC_Setup+0x4a>
        ((USBD_CDC_ItfTypeDef *)pdev->pUserData)->Control(req->bRequest,
 8001d02:	f8d0 22c0 	ldr.w	r2, [r0, #704]	; 0x2c0
 8001d06:	4639      	mov	r1, r7
 8001d08:	f8d2 9008 	ldr.w	r9, [r2, #8]
 8001d0c:	4618      	mov	r0, r3
 8001d0e:	4622      	mov	r2, r4
 8001d10:	47c8      	blx	r9
          (void)USBD_CtlSendData(pdev, (uint8_t *)hcdc->data, req->wLength);
 8001d12:	88f2      	ldrh	r2, [r6, #6]
 8001d14:	4639      	mov	r1, r7
        (void)USBD_CtlSendData(pdev, &ifalt, 1U);
 8001d16:	4628      	mov	r0, r5
 8001d18:	f000 fc94 	bl	8002644 <USBD_CtlSendData>
 8001d1c:	e007      	b.n	8001d2e <USBD_CDC_Setup+0x5a>
        hcdc->CmdOpCode = req->bRequest;
 8001d1e:	f887 3200 	strb.w	r3, [r7, #512]	; 0x200
        hcdc->CmdLength = (uint8_t)req->wLength;
 8001d22:	f887 4201 	strb.w	r4, [r7, #513]	; 0x201
        (void)USBD_CtlPrepareRx(pdev, (uint8_t *)hcdc->data, req->wLength);
 8001d26:	4622      	mov	r2, r4
 8001d28:	4639      	mov	r1, r7
 8001d2a:	f000 fca0 	bl	800266e <USBD_CtlPrepareRx>
  USBD_StatusTypeDef ret = USBD_OK;
 8001d2e:	2000      	movs	r0, #0
 8001d30:	e03d      	b.n	8001dae <USBD_CDC_Setup+0xda>
      ((USBD_CDC_ItfTypeDef *)pdev->pUserData)->Control(req->bRequest,
 8001d32:	f8d0 22c0 	ldr.w	r2, [r0, #704]	; 0x2c0
 8001d36:	4618      	mov	r0, r3
 8001d38:	6895      	ldr	r5, [r2, #8]
 8001d3a:	4622      	mov	r2, r4
 8001d3c:	47a8      	blx	r5
 8001d3e:	e7f6      	b.n	8001d2e <USBD_CDC_Setup+0x5a>
    switch (req->bRequest)
 8001d40:	784b      	ldrb	r3, [r1, #1]
 8001d42:	2b0b      	cmp	r3, #11
 8001d44:	d82e      	bhi.n	8001da4 <USBD_CDC_Setup+0xd0>
 8001d46:	a201      	add	r2, pc, #4	; (adr r2, 8001d4c <USBD_CDC_Setup+0x78>)
 8001d48:	f852 f023 	ldr.w	pc, [r2, r3, lsl #2]
 8001d4c:	08001d7d 	.word	0x08001d7d
 8001d50:	08001d2f 	.word	0x08001d2f
 8001d54:	08001da5 	.word	0x08001da5
 8001d58:	08001da5 	.word	0x08001da5
 8001d5c:	08001da5 	.word	0x08001da5
 8001d60:	08001da5 	.word	0x08001da5
 8001d64:	08001da5 	.word	0x08001da5
 8001d68:	08001da5 	.word	0x08001da5
 8001d6c:	08001da5 	.word	0x08001da5
 8001d70:	08001da5 	.word	0x08001da5
 8001d74:	08001d8d 	.word	0x08001d8d
 8001d78:	08001d9d 	.word	0x08001d9d
      if (pdev->dev_state == USBD_STATE_CONFIGURED)
 8001d7c:	f890 329c 	ldrb.w	r3, [r0, #668]	; 0x29c
 8001d80:	2b03      	cmp	r3, #3
 8001d82:	d10f      	bne.n	8001da4 <USBD_CDC_Setup+0xd0>
        (void)USBD_CtlSendData(pdev, (uint8_t *)&status_info, 2U);
 8001d84:	2202      	movs	r2, #2
 8001d86:	f10d 0106 	add.w	r1, sp, #6
 8001d8a:	e7c4      	b.n	8001d16 <USBD_CDC_Setup+0x42>
      if (pdev->dev_state == USBD_STATE_CONFIGURED)
 8001d8c:	f890 329c 	ldrb.w	r3, [r0, #668]	; 0x29c
 8001d90:	2b03      	cmp	r3, #3
 8001d92:	d107      	bne.n	8001da4 <USBD_CDC_Setup+0xd0>
        (void)USBD_CtlSendData(pdev, &ifalt, 1U);
 8001d94:	2201      	movs	r2, #1
 8001d96:	f10d 0105 	add.w	r1, sp, #5
 8001d9a:	e7bc      	b.n	8001d16 <USBD_CDC_Setup+0x42>
      if (pdev->dev_state != USBD_STATE_CONFIGURED)
 8001d9c:	f890 329c 	ldrb.w	r3, [r0, #668]	; 0x29c
 8001da0:	2b03      	cmp	r3, #3
 8001da2:	d0c4      	beq.n	8001d2e <USBD_CDC_Setup+0x5a>
      USBD_CtlError(pdev, req);
 8001da4:	4631      	mov	r1, r6
 8001da6:	4628      	mov	r0, r5
    USBD_CtlError(pdev, req);
 8001da8:	f000 fc25 	bl	80025f6 <USBD_CtlError>
    ret = USBD_FAIL;
 8001dac:	2003      	movs	r0, #3
}
 8001dae:	b003      	add	sp, #12
 8001db0:	e8bd 83f0 	ldmia.w	sp!, {r4, r5, r6, r7, r8, r9, pc}

08001db4 <USBD_CDC_DeInit>:
{
 8001db4:	b538      	push	{r3, r4, r5, lr}
 8001db6:	4604      	mov	r4, r0
  pdev->ep_in[CDC_IN_EP & 0xFU].is_used = 0U;
 8001db8:	2500      	movs	r5, #0
  (void)USBD_LL_CloseEP(pdev, CDC_IN_EP);
 8001dba:	2181      	movs	r1, #129	; 0x81
 8001dbc:	f000 ff82 	bl	8002cc4 <USBD_LL_CloseEP>
  (void)USBD_LL_CloseEP(pdev, CDC_OUT_EP);
 8001dc0:	2101      	movs	r1, #1
  pdev->ep_in[CDC_IN_EP & 0xFU].is_used = 0U;
 8001dc2:	8725      	strh	r5, [r4, #56]	; 0x38
  (void)USBD_LL_CloseEP(pdev, CDC_OUT_EP);
 8001dc4:	4620      	mov	r0, r4
 8001dc6:	f000 ff7d 	bl	8002cc4 <USBD_LL_CloseEP>
  pdev->ep_out[CDC_OUT_EP & 0xFU].is_used = 0U;
 8001dca:	f8a4 5178 	strh.w	r5, [r4, #376]	; 0x178
  (void)USBD_LL_CloseEP(pdev, CDC_CMD_EP);
 8001dce:	2182      	movs	r1, #130	; 0x82
 8001dd0:	4620      	mov	r0, r4
 8001dd2:	f000 ff77 	bl	8002cc4 <USBD_LL_CloseEP>
  if (pdev->pClassData != NULL)
 8001dd6:	f8d4 32bc 	ldr.w	r3, [r4, #700]	; 0x2bc
  pdev->ep_in[CDC_CMD_EP & 0xFU].is_used = 0U;
 8001dda:	f8a4 504c 	strh.w	r5, [r4, #76]	; 0x4c
  pdev->ep_in[CDC_CMD_EP & 0xFU].bInterval = 0U;
 8001dde:	f8a4 504e 	strh.w	r5, [r4, #78]	; 0x4e
  if (pdev->pClassData != NULL)
 8001de2:	b14b      	cbz	r3, 8001df8 <USBD_CDC_DeInit+0x44>
    ((USBD_CDC_ItfTypeDef *)pdev->pUserData)->DeInit();
 8001de4:	f8d4 32c0 	ldr.w	r3, [r4, #704]	; 0x2c0
 8001de8:	685b      	ldr	r3, [r3, #4]
 8001dea:	4798      	blx	r3
    (void)USBD_free(pdev->pClassData);
 8001dec:	f8d4 02bc 	ldr.w	r0, [r4, #700]	; 0x2bc
 8001df0:	f001 f8c2 	bl	8002f78 <free>
    pdev->pClassData = NULL;
 8001df4:	f8c4 52bc 	str.w	r5, [r4, #700]	; 0x2bc
}
 8001df8:	2000      	movs	r0, #0
 8001dfa:	bd38      	pop	{r3, r4, r5, pc}

08001dfc <USBD_CDC_Init>:
{
 8001dfc:	e92d 41f0 	stmdb	sp!, {r4, r5, r6, r7, r8, lr}
 8001e00:	4604      	mov	r4, r0
  hcdc = USBD_malloc(sizeof(USBD_CDC_HandleTypeDef));
 8001e02:	f44f 7007 	mov.w	r0, #540	; 0x21c
 8001e06:	f001 f8af 	bl	8002f68 <malloc>
  if (hcdc == NULL)
 8001e0a:	4606      	mov	r6, r0
    pdev->pClassData = NULL;
 8001e0c:	f8c4 02bc 	str.w	r0, [r4, #700]	; 0x2bc
  if (hcdc == NULL)
 8001e10:	b910      	cbnz	r0, 8001e18 <USBD_CDC_Init+0x1c>
    return (uint8_t)USBD_EMEM;
 8001e12:	2002      	movs	r0, #2
 8001e14:	e8bd 81f0 	ldmia.w	sp!, {r4, r5, r6, r7, r8, pc}
  if (pdev->dev_speed == USBD_SPEED_HIGH)
 8001e18:	7c23      	ldrb	r3, [r4, #16]
 8001e1a:	bbb3      	cbnz	r3, 8001e8a <USBD_CDC_Init+0x8e>
    (void)USBD_LL_OpenEP(pdev, CDC_IN_EP, USBD_EP_TYPE_BULK,
 8001e1c:	f44f 7300 	mov.w	r3, #512	; 0x200
 8001e20:	2202      	movs	r2, #2
 8001e22:	2181      	movs	r1, #129	; 0x81
 8001e24:	4620      	mov	r0, r4
     pdev->ep_in[CDC_IN_EP & 0xFU].is_used = 1U;
 8001e26:	2501      	movs	r5, #1
    (void)USBD_LL_OpenEP(pdev, CDC_IN_EP, USBD_EP_TYPE_BULK,
 8001e28:	f000 ff3c 	bl	8002ca4 <USBD_LL_OpenEP>
     pdev->ep_in[CDC_IN_EP & 0xFU].is_used = 1U;
 8001e2c:	8725      	strh	r5, [r4, #56]	; 0x38
     (void)USBD_LL_OpenEP(pdev, CDC_OUT_EP, USBD_EP_TYPE_BULK,
 8001e2e:	f44f 7300 	mov.w	r3, #512	; 0x200
     (void)USBD_LL_OpenEP(pdev, CDC_OUT_EP, USBD_EP_TYPE_BULK,
 8001e32:	4629      	mov	r1, r5
 8001e34:	2202      	movs	r2, #2
 8001e36:	4620      	mov	r0, r4
 8001e38:	f000 ff34 	bl	8002ca4 <USBD_LL_OpenEP>
      pdev->ep_in[CDC_CMD_EP & 0xFU].bInterval = CDC_FS_BINTERVAL;
 8001e3c:	2310      	movs	r3, #16
      pdev->ep_out[CDC_OUT_EP & 0xFU].is_used = 1U;
 8001e3e:	f8a4 5178 	strh.w	r5, [r4, #376]	; 0x178
      pdev->ep_in[CDC_CMD_EP & 0xFU].bInterval = CDC_FS_BINTERVAL;
 8001e42:	f8a4 304e 	strh.w	r3, [r4, #78]	; 0x4e
  (void)USBD_LL_OpenEP(pdev, CDC_CMD_EP, USBD_EP_TYPE_INTR, CDC_CMD_PACKET_SIZE);
 8001e46:	2203      	movs	r2, #3
 8001e48:	2308      	movs	r3, #8
 8001e4a:	2182      	movs	r1, #130	; 0x82
 8001e4c:	4620      	mov	r0, r4
 8001e4e:	f000 ff29 	bl	8002ca4 <USBD_LL_OpenEP>
  ((USBD_CDC_ItfTypeDef *)pdev->pUserData)->Init();
 8001e52:	f8d4 32c0 	ldr.w	r3, [r4, #704]	; 0x2c0
  pdev->ep_in[CDC_CMD_EP & 0xFU].is_used = 1U;
 8001e56:	2701      	movs	r7, #1
 8001e58:	f8a4 704c 	strh.w	r7, [r4, #76]	; 0x4c
  ((USBD_CDC_ItfTypeDef *)pdev->pUserData)->Init();
 8001e5c:	681b      	ldr	r3, [r3, #0]
 8001e5e:	4798      	blx	r3
  if (pdev->dev_speed == USBD_SPEED_HIGH)
 8001e60:	f894 8010 	ldrb.w	r8, [r4, #16]
  hcdc->TxState = 0U;
 8001e64:	2500      	movs	r5, #0
 8001e66:	f8c6 5214 	str.w	r5, [r6, #532]	; 0x214
  hcdc->RxState = 0U;
 8001e6a:	f8c6 5218 	str.w	r5, [r6, #536]	; 0x218
  if (pdev->dev_speed == USBD_SPEED_HIGH)
 8001e6e:	f1b8 0f00 	cmp.w	r8, #0
 8001e72:	d114      	bne.n	8001e9e <USBD_CDC_Init+0xa2>
    (void)USBD_LL_PrepareReceive(pdev, CDC_OUT_EP, hcdc->RxBuffer,
 8001e74:	f44f 7300 	mov.w	r3, #512	; 0x200
 8001e78:	f8d6 2204 	ldr.w	r2, [r6, #516]	; 0x204
 8001e7c:	4639      	mov	r1, r7
 8001e7e:	4620      	mov	r0, r4
 8001e80:	f000 ff7a 	bl	8002d78 <USBD_LL_PrepareReceive>
  return (uint8_t)USBD_OK;
 8001e84:	4640      	mov	r0, r8
 8001e86:	e8bd 81f0 	ldmia.w	sp!, {r4, r5, r6, r7, r8, pc}
    (void)USBD_LL_OpenEP(pdev, CDC_IN_EP, USBD_EP_TYPE_BULK,
 8001e8a:	2340      	movs	r3, #64	; 0x40
 8001e8c:	2202      	movs	r2, #2
 8001e8e:	2181      	movs	r1, #129	; 0x81
 8001e90:	4620      	mov	r0, r4
     pdev->ep_in[CDC_IN_EP & 0xFU].is_used = 1U;
 8001e92:	2501      	movs	r5, #1
    (void)USBD_LL_OpenEP(pdev, CDC_IN_EP, USBD_EP_TYPE_BULK,
 8001e94:	f000 ff06 	bl	8002ca4 <USBD_LL_OpenEP>
     pdev->ep_in[CDC_IN_EP & 0xFU].is_used = 1U;
 8001e98:	8725      	strh	r5, [r4, #56]	; 0x38
     (void)USBD_LL_OpenEP(pdev, CDC_OUT_EP, USBD_EP_TYPE_BULK,
 8001e9a:	2340      	movs	r3, #64	; 0x40
 8001e9c:	e7c9      	b.n	8001e32 <USBD_CDC_Init+0x36>
    (void)USBD_LL_PrepareReceive(pdev, CDC_OUT_EP, hcdc->RxBuffer,
 8001e9e:	2340      	movs	r3, #64	; 0x40
 8001ea0:	f8d6 2204 	ldr.w	r2, [r6, #516]	; 0x204
 8001ea4:	4639      	mov	r1, r7
 8001ea6:	4620      	mov	r0, r4
 8001ea8:	f000 ff66 	bl	8002d78 <USBD_LL_PrepareReceive>
  return (uint8_t)USBD_OK;
 8001eac:	4628      	mov	r0, r5
}
 8001eae:	e8bd 81f0 	ldmia.w	sp!, {r4, r5, r6, r7, r8, pc}

08001eb2 <USBD_CDC_RegisterInterface>:
  * @retval status
  */
uint8_t USBD_CDC_RegisterInterface(USBD_HandleTypeDef *pdev,
                                   USBD_CDC_ItfTypeDef *fops)
{
  if (fops == NULL)
 8001eb2:	b119      	cbz	r1, 8001ebc <USBD_CDC_RegisterInterface+0xa>
  {
    return (uint8_t)USBD_FAIL;
  }

  pdev->pUserData = fops;
 8001eb4:	f8c0 12c0 	str.w	r1, [r0, #704]	; 0x2c0

  return (uint8_t)USBD_OK;
 8001eb8:	2000      	movs	r0, #0
 8001eba:	4770      	bx	lr
    return (uint8_t)USBD_FAIL;
 8001ebc:	2003      	movs	r0, #3
}
 8001ebe:	4770      	bx	lr

08001ec0 <USBD_CDC_SetTxBuffer>:
  * @retval status
  */
uint8_t USBD_CDC_SetTxBuffer(USBD_HandleTypeDef *pdev,
                             uint8_t *pbuff, uint32_t length)
{
  USBD_CDC_HandleTypeDef *hcdc = (USBD_CDC_HandleTypeDef *)pdev->pClassData;
 8001ec0:	f8d0 32bc 	ldr.w	r3, [r0, #700]	; 0x2bc

  hcdc->TxBuffer = pbuff;
  hcdc->TxLength = length;

  return (uint8_t)USBD_OK;
}
 8001ec4:	2000      	movs	r0, #0
  hcdc->TxBuffer = pbuff;
 8001ec6:	f8c3 1208 	str.w	r1, [r3, #520]	; 0x208
  hcdc->TxLength = length;
 8001eca:	f8c3 2210 	str.w	r2, [r3, #528]	; 0x210
}
 8001ece:	4770      	bx	lr

08001ed0 <USBD_CDC_SetRxBuffer>:
  */
uint8_t USBD_CDC_SetRxBuffer(USBD_HandleTypeDef *pdev, uint8_t *pbuff)
{
  USBD_CDC_HandleTypeDef *hcdc = (USBD_CDC_HandleTypeDef *)pdev->pClassData;

  hcdc->RxBuffer = pbuff;
 8001ed0:	f8d0 32bc 	ldr.w	r3, [r0, #700]	; 0x2bc

  return (uint8_t)USBD_OK;
}
 8001ed4:	2000      	movs	r0, #0
  hcdc->RxBuffer = pbuff;
 8001ed6:	f8c3 1204 	str.w	r1, [r3, #516]	; 0x204
}
 8001eda:	4770      	bx	lr

08001edc <USBD_CDC_TransmitPacket>:
  * @param  pdev: device instance
  * @retval status
  */
uint8_t USBD_CDC_TransmitPacket(USBD_HandleTypeDef *pdev)
{
  USBD_CDC_HandleTypeDef *hcdc = (USBD_CDC_HandleTypeDef *)pdev->pClassData;
 8001edc:	f8d0 22bc 	ldr.w	r2, [r0, #700]	; 0x2bc
{
 8001ee0:	b510      	push	{r4, lr}
  USBD_StatusTypeDef ret = USBD_BUSY;

  if (pdev->pClassData == NULL)
 8001ee2:	b17a      	cbz	r2, 8001f04 <USBD_CDC_TransmitPacket+0x28>
  {
    return (uint8_t)USBD_FAIL;
  }

  if (hcdc->TxState == 0U)
 8001ee4:	f8d2 4214 	ldr.w	r4, [r2, #532]	; 0x214
 8001ee8:	2301      	movs	r3, #1
 8001eea:	b96c      	cbnz	r4, 8001f08 <USBD_CDC_TransmitPacket+0x2c>
  {
    /* Tx Transfer in progress */
    hcdc->TxState = 1U;
 8001eec:	f8c2 3214 	str.w	r3, [r2, #532]	; 0x214

    /* Update the packet total length */
    pdev->ep_in[CDC_IN_EP & 0xFU].total_length = hcdc->TxLength;
 8001ef0:	f8d2 3210 	ldr.w	r3, [r2, #528]	; 0x210
 8001ef4:	62c3      	str	r3, [r0, #44]	; 0x2c

    /* Transmit next packet */
    (void)USBD_LL_Transmit(pdev, CDC_IN_EP, hcdc->TxBuffer, hcdc->TxLength);
 8001ef6:	f8d2 2208 	ldr.w	r2, [r2, #520]	; 0x208
 8001efa:	2181      	movs	r1, #129	; 0x81
 8001efc:	f000 ff2e 	bl	8002d5c <USBD_LL_Transmit>

    ret = USBD_OK;
 8001f00:	4620      	mov	r0, r4
 8001f02:	bd10      	pop	{r4, pc}
    return (uint8_t)USBD_FAIL;
 8001f04:	2003      	movs	r0, #3
 8001f06:	bd10      	pop	{r4, pc}
  USBD_StatusTypeDef ret = USBD_BUSY;
 8001f08:	4618      	mov	r0, r3
  }

  return (uint8_t)ret;
}
 8001f0a:	bd10      	pop	{r4, pc}

08001f0c <USBD_CDC_ReceivePacket>:
  * @param  pdev: device instance
  * @retval status
  */
uint8_t USBD_CDC_ReceivePacket(USBD_HandleTypeDef *pdev)
{
  USBD_CDC_HandleTypeDef *hcdc = (USBD_CDC_HandleTypeDef *)pdev->pClassData;
 8001f0c:	f8d0 22bc 	ldr.w	r2, [r0, #700]	; 0x2bc
{
 8001f10:	b510      	push	{r4, lr}

  if (pdev->pClassData == NULL)
 8001f12:	b162      	cbz	r2, 8001f2e <USBD_CDC_ReceivePacket+0x22>
  {
    return (uint8_t)USBD_FAIL;
  }

  if (pdev->dev_speed == USBD_SPEED_HIGH)
 8001f14:	7c04      	ldrb	r4, [r0, #16]
 8001f16:	b944      	cbnz	r4, 8001f2a <USBD_CDC_ReceivePacket+0x1e>
  {
    /* Prepare Out endpoint to receive next packet */
    (void)USBD_LL_PrepareReceive(pdev, CDC_OUT_EP, hcdc->RxBuffer,
 8001f18:	f44f 7300 	mov.w	r3, #512	; 0x200
                                 CDC_DATA_HS_OUT_PACKET_SIZE);
  }
  else
  {
    /* Prepare Out endpoint to receive next packet */
    (void)USBD_LL_PrepareReceive(pdev, CDC_OUT_EP, hcdc->RxBuffer,
 8001f1c:	f8d2 2204 	ldr.w	r2, [r2, #516]	; 0x204
 8001f20:	2101      	movs	r1, #1
 8001f22:	f000 ff29 	bl	8002d78 <USBD_LL_PrepareReceive>
                                 CDC_DATA_FS_OUT_PACKET_SIZE);
  }

  return (uint8_t)USBD_OK;
 8001f26:	2000      	movs	r0, #0
 8001f28:	bd10      	pop	{r4, pc}
    (void)USBD_LL_PrepareReceive(pdev, CDC_OUT_EP, hcdc->RxBuffer,
 8001f2a:	2340      	movs	r3, #64	; 0x40
 8001f2c:	e7f6      	b.n	8001f1c <USBD_CDC_ReceivePacket+0x10>
    return (uint8_t)USBD_FAIL;
 8001f2e:	2003      	movs	r0, #3
}
 8001f30:	bd10      	pop	{r4, pc}

08001f32 <USBD_Init>:
                             USBD_DescriptorsTypeDef *pdesc, uint8_t id)
{
  USBD_StatusTypeDef ret;

  /* Check whether the USB Host handle is valid */
  if (pdev == NULL)
 8001f32:	b1a0      	cbz	r0, 8001f5e <USBD_Init+0x2c>
#endif
    return USBD_FAIL;
  }

  /* Unlink previous class */
  if (pdev->pClass != NULL)
 8001f34:	f8d0 32b8 	ldr.w	r3, [r0, #696]	; 0x2b8
 8001f38:	b113      	cbz	r3, 8001f40 <USBD_Init+0xe>
  {
    pdev->pClass = NULL;
 8001f3a:	2300      	movs	r3, #0
 8001f3c:	f8c0 32b8 	str.w	r3, [r0, #696]	; 0x2b8
  }

  if (pdev->pConfDesc != NULL)
 8001f40:	f8d0 32cc 	ldr.w	r3, [r0, #716]	; 0x2cc
 8001f44:	b113      	cbz	r3, 8001f4c <USBD_Init+0x1a>
  {
    pdev->pConfDesc = NULL;
 8001f46:	2300      	movs	r3, #0
 8001f48:	f8c0 32cc 	str.w	r3, [r0, #716]	; 0x2cc
  }

  /* Assign USBD Descriptors */
  if (pdesc != NULL)
 8001f4c:	b109      	cbz	r1, 8001f52 <USBD_Init+0x20>
  {
    pdev->pDesc = pdesc;
 8001f4e:	f8c0 12b4 	str.w	r1, [r0, #692]	; 0x2b4
  }

  /* Set Device initial State */
  pdev->dev_state = USBD_STATE_DEFAULT;
 8001f52:	2301      	movs	r3, #1
 8001f54:	f880 329c 	strb.w	r3, [r0, #668]	; 0x29c
  pdev->id = id;
 8001f58:	7002      	strb	r2, [r0, #0]

  /* Initialize low level driver */
  ret = USBD_LL_Init(pdev);
 8001f5a:	f000 be67 	b.w	8002c2c <USBD_LL_Init>

  return ret;
}
 8001f5e:	2003      	movs	r0, #3
 8001f60:	4770      	bx	lr

08001f62 <USBD_RegisterClass>:
  * @param  pDevice : Device Handle
  * @param  pclass: Class handle
  * @retval USBD Status
  */
USBD_StatusTypeDef USBD_RegisterClass(USBD_HandleTypeDef *pdev, USBD_ClassTypeDef *pclass)
{
 8001f62:	b537      	push	{r0, r1, r2, r4, r5, lr}
  uint16_t len = 0U;
 8001f64:	2400      	movs	r4, #0
{
 8001f66:	4605      	mov	r5, r0
  uint16_t len = 0U;
 8001f68:	f8ad 4006 	strh.w	r4, [sp, #6]

  if (pclass == NULL)
 8001f6c:	b151      	cbz	r1, 8001f84 <USBD_RegisterClass+0x22>
#endif
    return USBD_FAIL;
  }

  /* link the class to the USB Device handle */
  pdev->pClass = pclass;
 8001f6e:	f8c0 12b8 	str.w	r1, [r0, #696]	; 0x2b8

  /* Get Device Configuration Descriptor */
#ifdef USE_USB_FS
  pdev->pConfDesc = (void *)pdev->pClass->GetFSConfigDescriptor(&len);
#else /* USE_USB_HS */
  pdev->pConfDesc = (void *)pdev->pClass->GetHSConfigDescriptor(&len);
 8001f72:	6a8b      	ldr	r3, [r1, #40]	; 0x28
 8001f74:	f10d 0006 	add.w	r0, sp, #6
 8001f78:	4798      	blx	r3
 8001f7a:	f8c5 02cc 	str.w	r0, [r5, #716]	; 0x2cc
#endif /* USE_USB_FS */


  return USBD_OK;
 8001f7e:	4620      	mov	r0, r4
}
 8001f80:	b003      	add	sp, #12
 8001f82:	bd30      	pop	{r4, r5, pc}
    return USBD_FAIL;
 8001f84:	2003      	movs	r0, #3
 8001f86:	e7fb      	b.n	8001f80 <USBD_RegisterClass+0x1e>

08001f88 <USBD_Start>:
  * @retval USBD Status
  */
USBD_StatusTypeDef USBD_Start(USBD_HandleTypeDef *pdev)
{
  /* Start the low level driver  */
  return USBD_LL_Start(pdev);
 8001f88:	f000 be7e 	b.w	8002c88 <USBD_LL_Start>

08001f8c <USBD_SetClassConfig>:

USBD_StatusTypeDef USBD_SetClassConfig(USBD_HandleTypeDef *pdev, uint8_t cfgidx)
{
  USBD_StatusTypeDef ret = USBD_FAIL;

  if (pdev->pClass != NULL)
 8001f8c:	f8d0 32b8 	ldr.w	r3, [r0, #696]	; 0x2b8
 8001f90:	b10b      	cbz	r3, 8001f96 <USBD_SetClassConfig+0xa>
  {
    /* Set configuration and Start the Class */
    ret = (USBD_StatusTypeDef)pdev->pClass->Init(pdev, cfgidx);
 8001f92:	681b      	ldr	r3, [r3, #0]
 8001f94:	4718      	bx	r3
  }

  return ret;
}
 8001f96:	2003      	movs	r0, #3
 8001f98:	4770      	bx	lr

08001f9a <USBD_ClrClassConfig>:
* @param  pdev: device instance
* @param  cfgidx: configuration index
* @retval status: USBD_StatusTypeDef
*/
USBD_StatusTypeDef USBD_ClrClassConfig(USBD_HandleTypeDef *pdev, uint8_t cfgidx)
{
 8001f9a:	b508      	push	{r3, lr}
  /* Clear configuration and De-initialize the Class process */
  if (pdev->pClass != NULL)
 8001f9c:	f8d0 32b8 	ldr.w	r3, [r0, #696]	; 0x2b8
 8001fa0:	b10b      	cbz	r3, 8001fa6 <USBD_ClrClassConfig+0xc>
  {
    pdev->pClass->DeInit(pdev, cfgidx);
 8001fa2:	685b      	ldr	r3, [r3, #4]
 8001fa4:	4798      	blx	r3
  }

  return USBD_OK;
}
 8001fa6:	2000      	movs	r0, #0
 8001fa8:	bd08      	pop	{r3, pc}

08001faa <USBD_LL_SetupStage>:
*         Handle the setup stage
* @param  pdev: device instance
* @retval status
*/
USBD_StatusTypeDef USBD_LL_SetupStage(USBD_HandleTypeDef *pdev, uint8_t *psetup)
{
 8001faa:	b538      	push	{r3, r4, r5, lr}
 8001fac:	4604      	mov	r4, r0
  USBD_StatusTypeDef ret;

  USBD_ParseSetupRequest(&pdev->request, psetup);
 8001fae:	f200 25aa 	addw	r5, r0, #682	; 0x2aa
 8001fb2:	4628      	mov	r0, r5
 8001fb4:	f000 fb0b 	bl	80025ce <USBD_ParseSetupRequest>

  pdev->ep0_state = USBD_EP0_SETUP;
 8001fb8:	2301      	movs	r3, #1

  pdev->ep0_data_len = pdev->request.wLength;

  switch (pdev->request.bmRequest & 0x1FU)
 8001fba:	f894 12aa 	ldrb.w	r1, [r4, #682]	; 0x2aa
  pdev->ep0_state = USBD_EP0_SETUP;
 8001fbe:	f8c4 3294 	str.w	r3, [r4, #660]	; 0x294
  pdev->ep0_data_len = pdev->request.wLength;
 8001fc2:	f8b4 32b0 	ldrh.w	r3, [r4, #688]	; 0x2b0
 8001fc6:	f8c4 3298 	str.w	r3, [r4, #664]	; 0x298
  switch (pdev->request.bmRequest & 0x1FU)
 8001fca:	f001 031f 	and.w	r3, r1, #31
 8001fce:	2b01      	cmp	r3, #1
 8001fd0:	d00f      	beq.n	8001ff2 <USBD_LL_SetupStage+0x48>
 8001fd2:	d308      	bcc.n	8001fe6 <USBD_LL_SetupStage+0x3c>
 8001fd4:	2b02      	cmp	r3, #2
 8001fd6:	d012      	beq.n	8001ffe <USBD_LL_SetupStage+0x54>
    case USB_REQ_RECIPIENT_ENDPOINT:
      ret = USBD_StdEPReq(pdev, &pdev->request);
      break;

    default:
      ret = USBD_LL_StallEP(pdev, (pdev->request.bmRequest & 0x80U));
 8001fd8:	4620      	mov	r0, r4
 8001fda:	f001 0180 	and.w	r1, r1, #128	; 0x80
      break;
  }

  return ret;
}
 8001fde:	e8bd 4038 	ldmia.w	sp!, {r3, r4, r5, lr}
      ret = USBD_LL_StallEP(pdev, (pdev->request.bmRequest & 0x80U));
 8001fe2:	f000 be7d 	b.w	8002ce0 <USBD_LL_StallEP>
      ret = USBD_StdDevReq(pdev, &pdev->request);
 8001fe6:	4629      	mov	r1, r5
 8001fe8:	4620      	mov	r0, r4
}
 8001fea:	e8bd 4038 	ldmia.w	sp!, {r3, r4, r5, lr}
      ret = USBD_StdDevReq(pdev, &pdev->request);
 8001fee:	f000 b8f5 	b.w	80021dc <USBD_StdDevReq>
      ret = USBD_StdItfReq(pdev, &pdev->request);
 8001ff2:	4629      	mov	r1, r5
 8001ff4:	4620      	mov	r0, r4
}
 8001ff6:	e8bd 4038 	ldmia.w	sp!, {r3, r4, r5, lr}
      ret = USBD_StdItfReq(pdev, &pdev->request);
 8001ffa:	f000 ba2f 	b.w	800245c <USBD_StdItfReq>
      ret = USBD_StdEPReq(pdev, &pdev->request);
 8001ffe:	4629      	mov	r1, r5
 8002000:	4620      	mov	r0, r4
}
 8002002:	e8bd 4038 	ldmia.w	sp!, {r3, r4, r5, lr}
      ret = USBD_StdEPReq(pdev, &pdev->request);
 8002006:	f000 ba50 	b.w	80024aa <USBD_StdEPReq>

0800200a <USBD_LL_DataOutStage>:
* @param  epnum: endpoint index
* @retval status
*/
USBD_StatusTypeDef USBD_LL_DataOutStage(USBD_HandleTypeDef *pdev,
                                        uint8_t epnum, uint8_t *pdata)
{
 800200a:	b570      	push	{r4, r5, r6, lr}
 800200c:	4604      	mov	r4, r0
 800200e:	4616      	mov	r6, r2
  USBD_EndpointTypeDef *pep;
  USBD_StatusTypeDef ret;

  if (epnum == 0U)
 8002010:	bb09      	cbnz	r1, 8002056 <USBD_LL_DataOutStage+0x4c>
  {
    pep = &pdev->ep_out[0];

    if (pdev->ep0_state == USBD_EP0_DATA_OUT)
 8002012:	f8d0 3294 	ldr.w	r3, [r0, #660]	; 0x294
 8002016:	2b03      	cmp	r3, #3
 8002018:	d10e      	bne.n	8002038 <USBD_LL_DataOutStage+0x2e>
    {
      if (pep->rem_length > pep->maxpacket)
 800201a:	f8d0 315c 	ldr.w	r3, [r0, #348]	; 0x15c
 800201e:	f8d0 2160 	ldr.w	r2, [r0, #352]	; 0x160
 8002022:	4293      	cmp	r3, r2
 8002024:	d90a      	bls.n	800203c <USBD_LL_DataOutStage+0x32>
      {
        pep->rem_length -= pep->maxpacket;
 8002026:	1a9b      	subs	r3, r3, r2

        (void)USBD_CtlContinueRx(pdev, pdata, MIN(pep->rem_length, pep->maxpacket));
 8002028:	429a      	cmp	r2, r3
        pep->rem_length -= pep->maxpacket;
 800202a:	f8c0 315c 	str.w	r3, [r0, #348]	; 0x15c
        (void)USBD_CtlContinueRx(pdev, pdata, MIN(pep->rem_length, pep->maxpacket));
 800202e:	bf28      	it	cs
 8002030:	461a      	movcs	r2, r3
 8002032:	4631      	mov	r1, r6
 8002034:	f000 fb2a 	bl	800268c <USBD_CtlContinueRx>
  {
    /* should never be in this condition */
    return USBD_FAIL;
  }

  return USBD_OK;
 8002038:	2000      	movs	r0, #0
 800203a:	bd70      	pop	{r4, r5, r6, pc}
        if ((pdev->pClass->EP0_RxReady != NULL) &&
 800203c:	f8d0 32b8 	ldr.w	r3, [r0, #696]	; 0x2b8
 8002040:	691b      	ldr	r3, [r3, #16]
 8002042:	b123      	cbz	r3, 800204e <USBD_LL_DataOutStage+0x44>
 8002044:	f890 229c 	ldrb.w	r2, [r0, #668]	; 0x29c
 8002048:	2a03      	cmp	r2, #3
 800204a:	d100      	bne.n	800204e <USBD_LL_DataOutStage+0x44>
          pdev->pClass->EP0_RxReady(pdev);
 800204c:	4798      	blx	r3
        (void)USBD_CtlSendStatus(pdev);
 800204e:	4620      	mov	r0, r4
 8002050:	f000 fb24 	bl	800269c <USBD_CtlSendStatus>
 8002054:	e7f0      	b.n	8002038 <USBD_LL_DataOutStage+0x2e>
  else if ((pdev->pClass->DataOut != NULL) &&
 8002056:	f8d0 32b8 	ldr.w	r3, [r0, #696]	; 0x2b8
 800205a:	699b      	ldr	r3, [r3, #24]
 800205c:	b133      	cbz	r3, 800206c <USBD_LL_DataOutStage+0x62>
 800205e:	f890 229c 	ldrb.w	r2, [r0, #668]	; 0x29c
 8002062:	2a03      	cmp	r2, #3
 8002064:	d102      	bne.n	800206c <USBD_LL_DataOutStage+0x62>
}
 8002066:	e8bd 4070 	ldmia.w	sp!, {r4, r5, r6, lr}
    ret = (USBD_StatusTypeDef)pdev->pClass->DataOut(pdev, epnum);
 800206a:	4718      	bx	r3
    return USBD_FAIL;
 800206c:	2003      	movs	r0, #3
}
 800206e:	bd70      	pop	{r4, r5, r6, pc}

08002070 <USBD_LL_DataInStage>:
* @param  epnum: endpoint index
* @retval status
*/
USBD_StatusTypeDef USBD_LL_DataInStage(USBD_HandleTypeDef *pdev,
                                       uint8_t epnum, uint8_t *pdata)
{
 8002070:	b570      	push	{r4, r5, r6, lr}
 8002072:	4604      	mov	r4, r0
 8002074:	4616      	mov	r6, r2
  USBD_EndpointTypeDef *pep;
  USBD_StatusTypeDef ret;

  if (epnum == 0U)
 8002076:	460d      	mov	r5, r1
 8002078:	2900      	cmp	r1, #0
 800207a:	d13b      	bne.n	80020f4 <USBD_LL_DataInStage+0x84>
  {
    pep = &pdev->ep_in[0];

    if (pdev->ep0_state == USBD_EP0_DATA_IN)
 800207c:	f8d0 3294 	ldr.w	r3, [r0, #660]	; 0x294
 8002080:	2b02      	cmp	r3, #2
 8002082:	d10e      	bne.n	80020a2 <USBD_LL_DataInStage+0x32>
    {
      if (pep->rem_length > pep->maxpacket)
 8002084:	69c2      	ldr	r2, [r0, #28]
 8002086:	6a03      	ldr	r3, [r0, #32]
 8002088:	429a      	cmp	r2, r3
 800208a:	d913      	bls.n	80020b4 <USBD_LL_DataInStage+0x44>
      {
        pep->rem_length -= pep->maxpacket;
 800208c:	1ad2      	subs	r2, r2, r3
 800208e:	61c2      	str	r2, [r0, #28]

        (void)USBD_CtlContinueSendData(pdev, pdata, pep->rem_length);
 8002090:	4631      	mov	r1, r6
 8002092:	f000 fae4 	bl	800265e <USBD_CtlContinueSendData>
        {
          (void)USBD_CtlContinueSendData(pdev, NULL, 0U);
          pdev->ep0_data_len = 0U;

          /* Prepare endpoint for premature end of transfer */
          (void)USBD_LL_PrepareReceive(pdev, 0U, NULL, 0U);
 8002096:	462b      	mov	r3, r5
 8002098:	462a      	mov	r2, r5
 800209a:	4629      	mov	r1, r5
 800209c:	4620      	mov	r0, r4
 800209e:	f000 fe6b 	bl	8002d78 <USBD_LL_PrepareReceive>
        (void)USBD_LL_StallEP(pdev, 0x80U);
      }
#endif
    }

    if (pdev->dev_test_mode == 1U)
 80020a2:	f894 32a0 	ldrb.w	r3, [r4, #672]	; 0x2a0
 80020a6:	2b01      	cmp	r3, #1
 80020a8:	f04f 0000 	mov.w	r0, #0
 80020ac:	d12e      	bne.n	800210c <USBD_LL_DataInStage+0x9c>
    {
      (void)USBD_RunTestMode(pdev);
      pdev->dev_test_mode = 0U;
 80020ae:	f884 02a0 	strb.w	r0, [r4, #672]	; 0x2a0
 80020b2:	bd70      	pop	{r4, r5, r6, pc}
        if ((pep->maxpacket == pep->rem_length) &&
 80020b4:	d10c      	bne.n	80020d0 <USBD_LL_DataInStage+0x60>
            (pep->total_length >= pep->maxpacket) &&
 80020b6:	6983      	ldr	r3, [r0, #24]
        if ((pep->maxpacket == pep->rem_length) &&
 80020b8:	429a      	cmp	r2, r3
 80020ba:	d809      	bhi.n	80020d0 <USBD_LL_DataInStage+0x60>
            (pep->total_length >= pep->maxpacket) &&
 80020bc:	f8d0 2298 	ldr.w	r2, [r0, #664]	; 0x298
 80020c0:	4293      	cmp	r3, r2
 80020c2:	d205      	bcs.n	80020d0 <USBD_LL_DataInStage+0x60>
          (void)USBD_CtlContinueSendData(pdev, NULL, 0U);
 80020c4:	460a      	mov	r2, r1
 80020c6:	f000 faca 	bl	800265e <USBD_CtlContinueSendData>
          pdev->ep0_data_len = 0U;
 80020ca:	f8c4 5298 	str.w	r5, [r4, #664]	; 0x298
 80020ce:	e7e2      	b.n	8002096 <USBD_LL_DataInStage+0x26>
          if ((pdev->pClass->EP0_TxSent != NULL) &&
 80020d0:	f8d4 32b8 	ldr.w	r3, [r4, #696]	; 0x2b8
 80020d4:	68db      	ldr	r3, [r3, #12]
 80020d6:	b12b      	cbz	r3, 80020e4 <USBD_LL_DataInStage+0x74>
 80020d8:	f894 229c 	ldrb.w	r2, [r4, #668]	; 0x29c
 80020dc:	2a03      	cmp	r2, #3
 80020de:	d101      	bne.n	80020e4 <USBD_LL_DataInStage+0x74>
            pdev->pClass->EP0_TxSent(pdev);
 80020e0:	4620      	mov	r0, r4
 80020e2:	4798      	blx	r3
          (void)USBD_LL_StallEP(pdev, 0x80U);
 80020e4:	2180      	movs	r1, #128	; 0x80
 80020e6:	4620      	mov	r0, r4
 80020e8:	f000 fdfa 	bl	8002ce0 <USBD_LL_StallEP>
          (void)USBD_CtlReceiveStatus(pdev);
 80020ec:	4620      	mov	r0, r4
 80020ee:	f000 fae0 	bl	80026b2 <USBD_CtlReceiveStatus>
 80020f2:	e7d6      	b.n	80020a2 <USBD_LL_DataInStage+0x32>
    }
  }
  else if ((pdev->pClass->DataIn != NULL) &&
 80020f4:	f8d0 32b8 	ldr.w	r3, [r0, #696]	; 0x2b8
 80020f8:	695b      	ldr	r3, [r3, #20]
 80020fa:	b133      	cbz	r3, 800210a <USBD_LL_DataInStage+0x9a>
 80020fc:	f890 229c 	ldrb.w	r2, [r0, #668]	; 0x29c
 8002100:	2a03      	cmp	r2, #3
 8002102:	d102      	bne.n	800210a <USBD_LL_DataInStage+0x9a>
    /* should never be in this condition */
    return USBD_FAIL;
  }

  return USBD_OK;
}
 8002104:	e8bd 4070 	ldmia.w	sp!, {r4, r5, r6, lr}
    ret = (USBD_StatusTypeDef)pdev->pClass->DataIn(pdev, epnum);
 8002108:	4718      	bx	r3
    return USBD_FAIL;
 800210a:	2003      	movs	r0, #3
}
 800210c:	bd70      	pop	{r4, r5, r6, pc}

0800210e <USBD_LL_Reset>:
*/

USBD_StatusTypeDef USBD_LL_Reset(USBD_HandleTypeDef *pdev)
{
  /* Upon Reset call user call back */
  pdev->dev_state = USBD_STATE_DEFAULT;
 800210e:	2301      	movs	r3, #1
{
 8002110:	b570      	push	{r4, r5, r6, lr}
  pdev->dev_state = USBD_STATE_DEFAULT;
 8002112:	f880 329c 	strb.w	r3, [r0, #668]	; 0x29c
  pdev->ep0_state = USBD_EP0_IDLE;
  pdev->dev_config = 0U;
  pdev->dev_remote_wakeup = 0U;

  if (pdev->pClassData != NULL)
 8002116:	f8d0 32bc 	ldr.w	r3, [r0, #700]	; 0x2bc
  pdev->ep0_state = USBD_EP0_IDLE;
 800211a:	2100      	movs	r1, #0
{
 800211c:	4604      	mov	r4, r0
  pdev->ep0_state = USBD_EP0_IDLE;
 800211e:	f8c0 1294 	str.w	r1, [r0, #660]	; 0x294
  pdev->dev_config = 0U;
 8002122:	6041      	str	r1, [r0, #4]
  pdev->dev_remote_wakeup = 0U;
 8002124:	f8c0 12a4 	str.w	r1, [r0, #676]	; 0x2a4
  if (pdev->pClassData != NULL)
 8002128:	b11b      	cbz	r3, 8002132 <USBD_LL_Reset+0x24>
  {
    pdev->pClass->DeInit(pdev, (uint8_t)pdev->dev_config);
 800212a:	f8d0 32b8 	ldr.w	r3, [r0, #696]	; 0x2b8
 800212e:	685b      	ldr	r3, [r3, #4]
 8002130:	4798      	blx	r3
  }

    /* Open EP0 OUT */
  (void)USBD_LL_OpenEP(pdev, 0x00U, USBD_EP_TYPE_CTRL, USB_MAX_EP0_SIZE);
 8002132:	2200      	movs	r2, #0
  pdev->ep_out[0x00U & 0xFU].is_used = 1U;

  pdev->ep_out[0].maxpacket = USB_MAX_EP0_SIZE;
 8002134:	2540      	movs	r5, #64	; 0x40
  (void)USBD_LL_OpenEP(pdev, 0x00U, USBD_EP_TYPE_CTRL, USB_MAX_EP0_SIZE);
 8002136:	4611      	mov	r1, r2
  pdev->ep_out[0x00U & 0xFU].is_used = 1U;
 8002138:	2601      	movs	r6, #1
  (void)USBD_LL_OpenEP(pdev, 0x00U, USBD_EP_TYPE_CTRL, USB_MAX_EP0_SIZE);
 800213a:	2340      	movs	r3, #64	; 0x40
 800213c:	4620      	mov	r0, r4
 800213e:	f000 fdb1 	bl	8002ca4 <USBD_LL_OpenEP>
  pdev->ep_out[0x00U & 0xFU].is_used = 1U;
 8002142:	f8a4 6164 	strh.w	r6, [r4, #356]	; 0x164
  pdev->ep_out[0].maxpacket = USB_MAX_EP0_SIZE;
 8002146:	f8c4 5160 	str.w	r5, [r4, #352]	; 0x160

  /* Open EP0 IN */
  (void)USBD_LL_OpenEP(pdev, 0x80U, USBD_EP_TYPE_CTRL, USB_MAX_EP0_SIZE);
 800214a:	462b      	mov	r3, r5
 800214c:	2200      	movs	r2, #0
 800214e:	2180      	movs	r1, #128	; 0x80
 8002150:	4620      	mov	r0, r4
 8002152:	f000 fda7 	bl	8002ca4 <USBD_LL_OpenEP>
  pdev->ep_in[0x80U & 0xFU].is_used = 1U;
 8002156:	84a6      	strh	r6, [r4, #36]	; 0x24

  pdev->ep_in[0].maxpacket = USB_MAX_EP0_SIZE;
 8002158:	6225      	str	r5, [r4, #32]

  return USBD_OK;
}
 800215a:	2000      	movs	r0, #0
 800215c:	bd70      	pop	{r4, r5, r6, pc}

0800215e <USBD_LL_SetSpeed>:
* @retval status
*/
USBD_StatusTypeDef USBD_LL_SetSpeed(USBD_HandleTypeDef *pdev,
                                    USBD_SpeedTypeDef speed)
{
  pdev->dev_speed = speed;
 800215e:	7401      	strb	r1, [r0, #16]

  return USBD_OK;
}
 8002160:	2000      	movs	r0, #0
 8002162:	4770      	bx	lr

08002164 <USBD_LL_Suspend>:
* @retval status
*/

USBD_StatusTypeDef USBD_LL_Suspend(USBD_HandleTypeDef *pdev)
{
  pdev->dev_old_state = pdev->dev_state;
 8002164:	f890 329c 	ldrb.w	r3, [r0, #668]	; 0x29c
 8002168:	f880 329d 	strb.w	r3, [r0, #669]	; 0x29d
  pdev->dev_state = USBD_STATE_SUSPENDED;
 800216c:	2304      	movs	r3, #4
 800216e:	f880 329c 	strb.w	r3, [r0, #668]	; 0x29c

  return USBD_OK;
}
 8002172:	2000      	movs	r0, #0
 8002174:	4770      	bx	lr

08002176 <USBD_LL_Resume>:
* @retval status
*/

USBD_StatusTypeDef USBD_LL_Resume(USBD_HandleTypeDef *pdev)
{
  if (pdev->dev_state == USBD_STATE_SUSPENDED)
 8002176:	f890 329c 	ldrb.w	r3, [r0, #668]	; 0x29c
 800217a:	2b04      	cmp	r3, #4
  {
    pdev->dev_state = pdev->dev_old_state;
 800217c:	bf04      	itt	eq
 800217e:	f890 329d 	ldrbeq.w	r3, [r0, #669]	; 0x29d
 8002182:	f880 329c 	strbeq.w	r3, [r0, #668]	; 0x29c
  }

  return USBD_OK;
}
 8002186:	2000      	movs	r0, #0
 8002188:	4770      	bx	lr

0800218a <USBD_LL_SOF>:
* @param  pdev: device instance
* @retval status
*/

USBD_StatusTypeDef USBD_LL_SOF(USBD_HandleTypeDef *pdev)
{
 800218a:	b508      	push	{r3, lr}
  if (pdev->dev_state == USBD_STATE_CONFIGURED)
 800218c:	f890 229c 	ldrb.w	r2, [r0, #668]	; 0x29c
 8002190:	2a03      	cmp	r2, #3
 8002192:	d104      	bne.n	800219e <USBD_LL_SOF+0x14>
  {
    if (pdev->pClass->SOF != NULL)
 8002194:	f8d0 32b8 	ldr.w	r3, [r0, #696]	; 0x2b8
 8002198:	69db      	ldr	r3, [r3, #28]
 800219a:	b103      	cbz	r3, 800219e <USBD_LL_SOF+0x14>
    {
      pdev->pClass->SOF(pdev);
 800219c:	4798      	blx	r3
    }
  }

  return USBD_OK;
}
 800219e:	2000      	movs	r0, #0
 80021a0:	bd08      	pop	{r3, pc}

080021a2 <USBD_LL_IsoINIncomplete>:
 80021a2:	2000      	movs	r0, #0
 80021a4:	4770      	bx	lr

080021a6 <USBD_LL_IsoOUTIncomplete>:
  /* Prevent unused arguments compilation warning */
  UNUSED(pdev);
  UNUSED(epnum);

  return USBD_OK;
}
 80021a6:	2000      	movs	r0, #0
 80021a8:	4770      	bx	lr

080021aa <USBD_LL_DevConnected>:
{
  /* Prevent unused argument compilation warning */
  UNUSED(pdev);

  return USBD_OK;
}
 80021aa:	2000      	movs	r0, #0
 80021ac:	4770      	bx	lr

080021ae <USBD_LL_DevDisconnected>:
* @retval status
*/
USBD_StatusTypeDef USBD_LL_DevDisconnected(USBD_HandleTypeDef *pdev)
{
  /* Free Class Resources */
  pdev->dev_state = USBD_STATE_DEFAULT;
 80021ae:	2201      	movs	r2, #1
{
 80021b0:	b508      	push	{r3, lr}
  pdev->dev_state = USBD_STATE_DEFAULT;
 80021b2:	f880 229c 	strb.w	r2, [r0, #668]	; 0x29c

  if (pdev->pClass != NULL)
 80021b6:	f8d0 22b8 	ldr.w	r2, [r0, #696]	; 0x2b8
 80021ba:	b112      	cbz	r2, 80021c2 <USBD_LL_DevDisconnected+0x14>
  {
    pdev->pClass->DeInit(pdev, (uint8_t)pdev->dev_config);
 80021bc:	6852      	ldr	r2, [r2, #4]
 80021be:	7901      	ldrb	r1, [r0, #4]
 80021c0:	4790      	blx	r2
  }

  return USBD_OK;
}
 80021c2:	2000      	movs	r0, #0
 80021c4:	bd08      	pop	{r3, pc}

080021c6 <USBD_CtlError.constprop.1>:
* @param  pdev: device instance
* @param  req: usb request
* @retval None
*/

void USBD_CtlError(USBD_HandleTypeDef *pdev, USBD_SetupReqTypedef *req)
 80021c6:	b510      	push	{r4, lr}
{
  UNUSED(req);

  (void)USBD_LL_StallEP(pdev, 0x80U);
 80021c8:	2180      	movs	r1, #128	; 0x80
void USBD_CtlError(USBD_HandleTypeDef *pdev, USBD_SetupReqTypedef *req)
 80021ca:	4604      	mov	r4, r0
  (void)USBD_LL_StallEP(pdev, 0x80U);
 80021cc:	f000 fd88 	bl	8002ce0 <USBD_LL_StallEP>
  (void)USBD_LL_StallEP(pdev, 0U);
 80021d0:	4620      	mov	r0, r4
 80021d2:	2100      	movs	r1, #0
}
 80021d4:	e8bd 4010 	ldmia.w	sp!, {r4, lr}
  (void)USBD_LL_StallEP(pdev, 0U);
 80021d8:	f000 bd82 	b.w	8002ce0 <USBD_LL_StallEP>

080021dc <USBD_StdDevReq>:
{
 80021dc:	b5f7      	push	{r0, r1, r2, r4, r5, r6, r7, lr}
  switch (req->bmRequest & USB_REQ_TYPE_MASK)
 80021de:	780b      	ldrb	r3, [r1, #0]
 80021e0:	f003 0360 	and.w	r3, r3, #96	; 0x60
 80021e4:	2b20      	cmp	r3, #32
{
 80021e6:	4604      	mov	r4, r0
 80021e8:	460e      	mov	r6, r1
  switch (req->bmRequest & USB_REQ_TYPE_MASK)
 80021ea:	d012      	beq.n	8002212 <USBD_StdDevReq+0x36>
 80021ec:	2b40      	cmp	r3, #64	; 0x40
 80021ee:	d010      	beq.n	8002212 <USBD_StdDevReq+0x36>
 80021f0:	2b00      	cmp	r3, #0
 80021f2:	d159      	bne.n	80022a8 <USBD_StdDevReq+0xcc>
    switch (req->bRequest)
 80021f4:	784b      	ldrb	r3, [r1, #1]
 80021f6:	2b09      	cmp	r3, #9
 80021f8:	d855      	bhi.n	80022a6 <USBD_StdDevReq+0xca>
 80021fa:	e8df f013 	tbh	[pc, r3, lsl #1]
 80021fe:	0100      	.short	0x0100
 8002200:	0054011e 	.word	0x0054011e
 8002204:	00540115 	.word	0x00540115
 8002208:	00140081 	.word	0x00140081
 800220c:	00e90054 	.word	0x00e90054
 8002210:	00a0      	.short	0x00a0
    ret = (USBD_StatusTypeDef)pdev->pClass->Setup(pdev, req);
 8002212:	f8d4 32b8 	ldr.w	r3, [r4, #696]	; 0x2b8
 8002216:	4631      	mov	r1, r6
 8002218:	689b      	ldr	r3, [r3, #8]
 800221a:	4620      	mov	r0, r4
 800221c:	4798      	blx	r3
 800221e:	4605      	mov	r5, r0
}
 8002220:	4628      	mov	r0, r5
 8002222:	b003      	add	sp, #12
 8002224:	bdf0      	pop	{r4, r5, r6, r7, pc}
  uint16_t len = 0U;
 8002226:	2300      	movs	r3, #0
 8002228:	f8ad 3006 	strh.w	r3, [sp, #6]
  switch (req->wValue >> 8)
 800222c:	884b      	ldrh	r3, [r1, #2]
 800222e:	0a1a      	lsrs	r2, r3, #8
 8002230:	3a01      	subs	r2, #1
 8002232:	2a06      	cmp	r2, #6
 8002234:	d837      	bhi.n	80022a6 <USBD_StdDevReq+0xca>
 8002236:	e8df f002 	tbb	[pc, r2]
 800223a:	1c04      	.short	0x1c04
 800223c:	4e363629 	.word	0x4e363629
 8002240:	58          	.byte	0x58
 8002241:	00          	.byte	0x00
    pbuf = pdev->pDesc->GetDeviceDescriptor(pdev->dev_speed, &len);
 8002242:	f8d0 32b4 	ldr.w	r3, [r0, #692]	; 0x2b4
 8002246:	681b      	ldr	r3, [r3, #0]
        pbuf = pdev->pDesc->GetInterfaceStrDescriptor(pdev->dev_speed, &len);
 8002248:	7c20      	ldrb	r0, [r4, #16]
 800224a:	f10d 0106 	add.w	r1, sp, #6
 800224e:	4798      	blx	r3
    if (req->wLength != 0U)
 8002250:	88f2      	ldrh	r2, [r6, #6]
 8002252:	2a00      	cmp	r2, #0
 8002254:	f000 80ed 	beq.w	8002432 <USBD_StdDevReq+0x256>
      if (len != 0U)
 8002258:	f8bd 3006 	ldrh.w	r3, [sp, #6]
 800225c:	b31b      	cbz	r3, 80022a6 <USBD_StdDevReq+0xca>
        len = MIN(len, req->wLength);
 800225e:	429a      	cmp	r2, r3
 8002260:	bf28      	it	cs
 8002262:	461a      	movcs	r2, r3
 8002264:	f8ad 2006 	strh.w	r2, [sp, #6]
        (void)USBD_CtlSendData(pdev, pbuf, len);
 8002268:	4601      	mov	r1, r0
    (void)USBD_CtlSendData(pdev, (uint8_t *)&pdev->dev_config_status, 2U);
 800226a:	4620      	mov	r0, r4
 800226c:	f000 f9ea 	bl	8002644 <USBD_CtlSendData>
 8002270:	e05f      	b.n	8002332 <USBD_StdDevReq+0x156>
    if (pdev->dev_speed == USBD_SPEED_HIGH)
 8002272:	7c02      	ldrb	r2, [r0, #16]
 8002274:	f8d0 32b8 	ldr.w	r3, [r0, #696]	; 0x2b8
 8002278:	b932      	cbnz	r2, 8002288 <USBD_StdDevReq+0xac>
      pbuf = pdev->pClass->GetHSConfigDescriptor(&len);
 800227a:	6a9b      	ldr	r3, [r3, #40]	; 0x28
      pbuf = pdev->pClass->GetFSConfigDescriptor(&len);
 800227c:	f10d 0006 	add.w	r0, sp, #6
 8002280:	4798      	blx	r3
      pbuf[1] = USB_DESC_TYPE_CONFIGURATION;
 8002282:	2302      	movs	r3, #2
      pbuf[1] = USB_DESC_TYPE_OTHER_SPEED_CONFIGURATION;
 8002284:	7043      	strb	r3, [r0, #1]
 8002286:	e7e3      	b.n	8002250 <USBD_StdDevReq+0x74>
      pbuf = pdev->pClass->GetFSConfigDescriptor(&len);
 8002288:	6adb      	ldr	r3, [r3, #44]	; 0x2c
 800228a:	e7f7      	b.n	800227c <USBD_StdDevReq+0xa0>
    switch ((uint8_t)(req->wValue))
 800228c:	b2db      	uxtb	r3, r3
 800228e:	2b05      	cmp	r3, #5
 8002290:	d809      	bhi.n	80022a6 <USBD_StdDevReq+0xca>
 8002292:	e8df f003 	tbb	[pc, r3]
 8002296:	0c03      	.short	0x0c03
 8002298:	1c181410 	.word	0x1c181410
      if (pdev->pDesc->GetLangIDStrDescriptor != NULL)
 800229c:	f8d0 32b4 	ldr.w	r3, [r0, #692]	; 0x2b4
 80022a0:	685b      	ldr	r3, [r3, #4]
      if (pdev->pDesc->GetInterfaceStrDescriptor != NULL)
 80022a2:	2b00      	cmp	r3, #0
 80022a4:	d1d0      	bne.n	8002248 <USBD_StdDevReq+0x6c>
      USBD_CtlError(pdev, req);
 80022a6:	4620      	mov	r0, r4
    USBD_CtlError(pdev, req);
 80022a8:	f7ff ff8d 	bl	80021c6 <USBD_CtlError.constprop.1>
 80022ac:	e041      	b.n	8002332 <USBD_StdDevReq+0x156>
      if (pdev->pDesc->GetManufacturerStrDescriptor != NULL)
 80022ae:	f8d0 32b4 	ldr.w	r3, [r0, #692]	; 0x2b4
 80022b2:	689b      	ldr	r3, [r3, #8]
 80022b4:	e7f5      	b.n	80022a2 <USBD_StdDevReq+0xc6>
      if (pdev->pDesc->GetProductStrDescriptor != NULL)
 80022b6:	f8d0 32b4 	ldr.w	r3, [r0, #692]	; 0x2b4
 80022ba:	68db      	ldr	r3, [r3, #12]
 80022bc:	e7f1      	b.n	80022a2 <USBD_StdDevReq+0xc6>
      if (pdev->pDesc->GetSerialStrDescriptor != NULL)
 80022be:	f8d0 32b4 	ldr.w	r3, [r0, #692]	; 0x2b4
 80022c2:	691b      	ldr	r3, [r3, #16]
 80022c4:	e7ed      	b.n	80022a2 <USBD_StdDevReq+0xc6>
      if (pdev->pDesc->GetConfigurationStrDescriptor != NULL)
 80022c6:	f8d0 32b4 	ldr.w	r3, [r0, #692]	; 0x2b4
 80022ca:	695b      	ldr	r3, [r3, #20]
 80022cc:	e7e9      	b.n	80022a2 <USBD_StdDevReq+0xc6>
      if (pdev->pDesc->GetInterfaceStrDescriptor != NULL)
 80022ce:	f8d0 32b4 	ldr.w	r3, [r0, #692]	; 0x2b4
 80022d2:	699b      	ldr	r3, [r3, #24]
 80022d4:	e7e5      	b.n	80022a2 <USBD_StdDevReq+0xc6>
    if (pdev->dev_speed == USBD_SPEED_HIGH)
 80022d6:	7c03      	ldrb	r3, [r0, #16]
 80022d8:	2b00      	cmp	r3, #0
 80022da:	d1e4      	bne.n	80022a6 <USBD_StdDevReq+0xca>
      pbuf = pdev->pClass->GetDeviceQualifierDescriptor(&len);
 80022dc:	f8d0 32b8 	ldr.w	r3, [r0, #696]	; 0x2b8
 80022e0:	f10d 0006 	add.w	r0, sp, #6
 80022e4:	6b5b      	ldr	r3, [r3, #52]	; 0x34
 80022e6:	4798      	blx	r3
 80022e8:	e7b2      	b.n	8002250 <USBD_StdDevReq+0x74>
    if (pdev->dev_speed == USBD_SPEED_HIGH)
 80022ea:	7c03      	ldrb	r3, [r0, #16]
 80022ec:	2b00      	cmp	r3, #0
 80022ee:	d1da      	bne.n	80022a6 <USBD_StdDevReq+0xca>
      pbuf = pdev->pClass->GetOtherSpeedConfigDescriptor(&len);
 80022f0:	f8d0 32b8 	ldr.w	r3, [r0, #696]	; 0x2b8
 80022f4:	f10d 0006 	add.w	r0, sp, #6
 80022f8:	6b1b      	ldr	r3, [r3, #48]	; 0x30
 80022fa:	4798      	blx	r3
      pbuf[1] = USB_DESC_TYPE_OTHER_SPEED_CONFIGURATION;
 80022fc:	2307      	movs	r3, #7
 80022fe:	e7c1      	b.n	8002284 <USBD_StdDevReq+0xa8>
  if ((req->wIndex == 0U) && (req->wLength == 0U) && (req->wValue < 128U))
 8002300:	888b      	ldrh	r3, [r1, #4]
 8002302:	2b00      	cmp	r3, #0
 8002304:	d1cf      	bne.n	80022a6 <USBD_StdDevReq+0xca>
 8002306:	88cf      	ldrh	r7, [r1, #6]
 8002308:	2f00      	cmp	r7, #0
 800230a:	d1cc      	bne.n	80022a6 <USBD_StdDevReq+0xca>
 800230c:	884d      	ldrh	r5, [r1, #2]
 800230e:	2d7f      	cmp	r5, #127	; 0x7f
 8002310:	d8c9      	bhi.n	80022a6 <USBD_StdDevReq+0xca>
    if (pdev->dev_state == USBD_STATE_CONFIGURED)
 8002312:	f890 329c 	ldrb.w	r3, [r0, #668]	; 0x29c
 8002316:	2b03      	cmp	r3, #3
    dev_addr = (uint8_t)(req->wValue) & 0x7FU;
 8002318:	b2e9      	uxtb	r1, r5
    if (pdev->dev_state == USBD_STATE_CONFIGURED)
 800231a:	d0c4      	beq.n	80022a6 <USBD_StdDevReq+0xca>
      pdev->dev_address = dev_addr;
 800231c:	f880 129e 	strb.w	r1, [r0, #670]	; 0x29e
      (void)USBD_LL_SetUSBAddress(pdev, dev_addr);
 8002320:	f000 fd0e 	bl	8002d40 <USBD_LL_SetUSBAddress>
      (void)USBD_CtlSendStatus(pdev);
 8002324:	4620      	mov	r0, r4
 8002326:	f000 f9b9 	bl	800269c <USBD_CtlSendStatus>
      if (dev_addr != 0U)
 800232a:	b125      	cbz	r5, 8002336 <USBD_StdDevReq+0x15a>
        pdev->dev_state = USBD_STATE_ADDRESSED;
 800232c:	2302      	movs	r3, #2
 800232e:	f884 329c 	strb.w	r3, [r4, #668]	; 0x29c
  USBD_StatusTypeDef ret = USBD_OK;
 8002332:	2500      	movs	r5, #0
 8002334:	e774      	b.n	8002220 <USBD_StdDevReq+0x44>
        pdev->dev_state = USBD_STATE_DEFAULT;
 8002336:	2301      	movs	r3, #1
        pdev->dev_state = USBD_STATE_CONFIGURED;
 8002338:	f884 329c 	strb.w	r3, [r4, #668]	; 0x29c
 800233c:	e770      	b.n	8002220 <USBD_StdDevReq+0x44>
  cfgidx = (uint8_t)(req->wValue);
 800233e:	788d      	ldrb	r5, [r1, #2]
 8002340:	4e45      	ldr	r6, [pc, #276]	; (8002458 <USBD_StdDevReq+0x27c>)
  if (cfgidx > USBD_MAX_NUM_CONFIGURATION)
 8002342:	2d01      	cmp	r5, #1
  cfgidx = (uint8_t)(req->wValue);
 8002344:	7035      	strb	r5, [r6, #0]
  if (cfgidx > USBD_MAX_NUM_CONFIGURATION)
 8002346:	d903      	bls.n	8002350 <USBD_StdDevReq+0x174>
    USBD_CtlError(pdev, req);
 8002348:	f7ff ff3d 	bl	80021c6 <USBD_CtlError.constprop.1>
    ret = USBD_FAIL;
 800234c:	2503      	movs	r5, #3
 800234e:	e767      	b.n	8002220 <USBD_StdDevReq+0x44>
  switch (pdev->dev_state)
 8002350:	f890 329c 	ldrb.w	r3, [r0, #668]	; 0x29c
 8002354:	2b02      	cmp	r3, #2
 8002356:	d008      	beq.n	800236a <USBD_StdDevReq+0x18e>
 8002358:	2b03      	cmp	r3, #3
 800235a:	d016      	beq.n	800238a <USBD_StdDevReq+0x1ae>
    USBD_CtlError(pdev, req);
 800235c:	f7ff ff33 	bl	80021c6 <USBD_CtlError.constprop.1>
    (void)USBD_ClrClassConfig(pdev, cfgidx);
 8002360:	7831      	ldrb	r1, [r6, #0]
 8002362:	4620      	mov	r0, r4
 8002364:	f7ff fe19 	bl	8001f9a <USBD_ClrClassConfig>
 8002368:	e7f0      	b.n	800234c <USBD_StdDevReq+0x170>
    if (cfgidx != 0U)
 800236a:	2d00      	cmp	r5, #0
 800236c:	d061      	beq.n	8002432 <USBD_StdDevReq+0x256>
      pdev->dev_config = cfgidx;
 800236e:	2101      	movs	r1, #1
 8002370:	6041      	str	r1, [r0, #4]
      ret = USBD_SetClassConfig(pdev, cfgidx);
 8002372:	f7ff fe0b 	bl	8001f8c <USBD_SetClassConfig>
      if (ret != USBD_OK)
 8002376:	4605      	mov	r5, r0
        USBD_CtlError(pdev, req);
 8002378:	4620      	mov	r0, r4
      if (ret != USBD_OK)
 800237a:	b115      	cbz	r5, 8002382 <USBD_StdDevReq+0x1a6>
      USBD_CtlError(pdev, req);
 800237c:	f7ff ff23 	bl	80021c6 <USBD_CtlError.constprop.1>
 8002380:	e74e      	b.n	8002220 <USBD_StdDevReq+0x44>
        (void)USBD_CtlSendStatus(pdev);
 8002382:	f000 f98b 	bl	800269c <USBD_CtlSendStatus>
        pdev->dev_state = USBD_STATE_CONFIGURED;
 8002386:	2303      	movs	r3, #3
 8002388:	e7d6      	b.n	8002338 <USBD_StdDevReq+0x15c>
    if (cfgidx == 0U)
 800238a:	b955      	cbnz	r5, 80023a2 <USBD_StdDevReq+0x1c6>
      pdev->dev_state = USBD_STATE_ADDRESSED;
 800238c:	2302      	movs	r3, #2
 800238e:	f880 329c 	strb.w	r3, [r0, #668]	; 0x29c
      pdev->dev_config = cfgidx;
 8002392:	6045      	str	r5, [r0, #4]
      (void)USBD_ClrClassConfig(pdev, cfgidx);
 8002394:	4629      	mov	r1, r5
 8002396:	f7ff fe00 	bl	8001f9a <USBD_ClrClassConfig>
        (void)USBD_CtlSendStatus(pdev);
 800239a:	4620      	mov	r0, r4
 800239c:	f000 f97e 	bl	800269c <USBD_CtlSendStatus>
 80023a0:	e73e      	b.n	8002220 <USBD_StdDevReq+0x44>
    else if (cfgidx != pdev->dev_config)
 80023a2:	6841      	ldr	r1, [r0, #4]
 80023a4:	2901      	cmp	r1, #1
 80023a6:	d044      	beq.n	8002432 <USBD_StdDevReq+0x256>
      (void)USBD_ClrClassConfig(pdev, (uint8_t)pdev->dev_config);
 80023a8:	b2c9      	uxtb	r1, r1
 80023aa:	f7ff fdf6 	bl	8001f9a <USBD_ClrClassConfig>
      pdev->dev_config = cfgidx;
 80023ae:	7831      	ldrb	r1, [r6, #0]
 80023b0:	6061      	str	r1, [r4, #4]
      ret = USBD_SetClassConfig(pdev, cfgidx);
 80023b2:	4620      	mov	r0, r4
 80023b4:	f7ff fdea 	bl	8001f8c <USBD_SetClassConfig>
      if (ret != USBD_OK)
 80023b8:	4605      	mov	r5, r0
 80023ba:	2800      	cmp	r0, #0
 80023bc:	d039      	beq.n	8002432 <USBD_StdDevReq+0x256>
        USBD_CtlError(pdev, req);
 80023be:	4620      	mov	r0, r4
 80023c0:	f7ff ff01 	bl	80021c6 <USBD_CtlError.constprop.1>
        (void)USBD_ClrClassConfig(pdev, (uint8_t)pdev->dev_config);
 80023c4:	7921      	ldrb	r1, [r4, #4]
 80023c6:	4620      	mov	r0, r4
 80023c8:	f7ff fde7 	bl	8001f9a <USBD_ClrClassConfig>
        pdev->dev_state = USBD_STATE_ADDRESSED;
 80023cc:	2302      	movs	r3, #2
 80023ce:	e7b3      	b.n	8002338 <USBD_StdDevReq+0x15c>
  if (req->wLength != 1U)
 80023d0:	88ca      	ldrh	r2, [r1, #6]
 80023d2:	2a01      	cmp	r2, #1
 80023d4:	f47f af67 	bne.w	80022a6 <USBD_StdDevReq+0xca>
    switch (pdev->dev_state)
 80023d8:	f890 329c 	ldrb.w	r3, [r0, #668]	; 0x29c
 80023dc:	2b00      	cmp	r3, #0
 80023de:	f43f af62 	beq.w	80022a6 <USBD_StdDevReq+0xca>
 80023e2:	2b02      	cmp	r3, #2
 80023e4:	d904      	bls.n	80023f0 <USBD_StdDevReq+0x214>
 80023e6:	2b03      	cmp	r3, #3
 80023e8:	f47f af5d 	bne.w	80022a6 <USBD_StdDevReq+0xca>
      (void)USBD_CtlSendData(pdev, (uint8_t *)&pdev->dev_config, 1U);
 80023ec:	1d01      	adds	r1, r0, #4
 80023ee:	e73c      	b.n	800226a <USBD_StdDevReq+0x8e>
      pdev->dev_default_config = 0U;
 80023f0:	4601      	mov	r1, r0
 80023f2:	2500      	movs	r5, #0
 80023f4:	f841 5f08 	str.w	r5, [r1, #8]!
      (void)USBD_CtlSendData(pdev, (uint8_t *)&pdev->dev_default_config, 1U);
 80023f8:	f000 f924 	bl	8002644 <USBD_CtlSendData>
 80023fc:	e710      	b.n	8002220 <USBD_StdDevReq+0x44>
  switch (pdev->dev_state)
 80023fe:	f890 329c 	ldrb.w	r3, [r0, #668]	; 0x29c
 8002402:	3b01      	subs	r3, #1
 8002404:	2b02      	cmp	r3, #2
 8002406:	f63f af4e 	bhi.w	80022a6 <USBD_StdDevReq+0xca>
    if (req->wLength != 0x2U)
 800240a:	88cb      	ldrh	r3, [r1, #6]
 800240c:	2b02      	cmp	r3, #2
 800240e:	f47f af4a 	bne.w	80022a6 <USBD_StdDevReq+0xca>
    pdev->dev_config_status = USB_CONFIG_SELF_POWERED;
 8002412:	2301      	movs	r3, #1
 8002414:	60c3      	str	r3, [r0, #12]
    if (pdev->dev_remote_wakeup != 0U)
 8002416:	f8d0 32a4 	ldr.w	r3, [r0, #676]	; 0x2a4
 800241a:	b10b      	cbz	r3, 8002420 <USBD_StdDevReq+0x244>
      pdev->dev_config_status |= USB_CONFIG_REMOTE_WAKEUP;
 800241c:	2303      	movs	r3, #3
 800241e:	60c3      	str	r3, [r0, #12]
    (void)USBD_CtlSendData(pdev, (uint8_t *)&pdev->dev_config_status, 2U);
 8002420:	2202      	movs	r2, #2
 8002422:	f104 010c 	add.w	r1, r4, #12
 8002426:	e720      	b.n	800226a <USBD_StdDevReq+0x8e>
  if (req->wValue == USB_FEATURE_REMOTE_WAKEUP)
 8002428:	884b      	ldrh	r3, [r1, #2]
 800242a:	2b01      	cmp	r3, #1
 800242c:	d181      	bne.n	8002332 <USBD_StdDevReq+0x156>
    pdev->dev_remote_wakeup = 1U;
 800242e:	f8c0 32a4 	str.w	r3, [r0, #676]	; 0x2a4
    (void)USBD_CtlSendStatus(pdev);
 8002432:	4620      	mov	r0, r4
 8002434:	f000 f932 	bl	800269c <USBD_CtlSendStatus>
 8002438:	e77b      	b.n	8002332 <USBD_StdDevReq+0x156>
  switch (pdev->dev_state)
 800243a:	f890 329c 	ldrb.w	r3, [r0, #668]	; 0x29c
 800243e:	3b01      	subs	r3, #1
 8002440:	2b02      	cmp	r3, #2
 8002442:	f04f 0500 	mov.w	r5, #0
 8002446:	d899      	bhi.n	800237c <USBD_StdDevReq+0x1a0>
      if (req->wValue == USB_FEATURE_REMOTE_WAKEUP)
 8002448:	884b      	ldrh	r3, [r1, #2]
 800244a:	2b01      	cmp	r3, #1
 800244c:	f47f aee8 	bne.w	8002220 <USBD_StdDevReq+0x44>
        pdev->dev_remote_wakeup = 0U;
 8002450:	f8c0 52a4 	str.w	r5, [r0, #676]	; 0x2a4
 8002454:	e7a1      	b.n	800239a <USBD_StdDevReq+0x1be>
 8002456:	bf00      	nop
 8002458:	20000208 	.word	0x20000208

0800245c <USBD_StdItfReq>:
{
 800245c:	b570      	push	{r4, r5, r6, lr}
  switch (req->bmRequest & USB_REQ_TYPE_MASK)
 800245e:	780b      	ldrb	r3, [r1, #0]
 8002460:	f003 0360 	and.w	r3, r3, #96	; 0x60
 8002464:	2b20      	cmp	r3, #32
{
 8002466:	4604      	mov	r4, r0
 8002468:	460e      	mov	r6, r1
  switch (req->bmRequest & USB_REQ_TYPE_MASK)
 800246a:	d002      	beq.n	8002472 <USBD_StdItfReq+0x16>
 800246c:	2b40      	cmp	r3, #64	; 0x40
 800246e:	d000      	beq.n	8002472 <USBD_StdItfReq+0x16>
 8002470:	b9bb      	cbnz	r3, 80024a2 <USBD_StdItfReq+0x46>
    switch (pdev->dev_state)
 8002472:	f894 329c 	ldrb.w	r3, [r4, #668]	; 0x29c
 8002476:	3b01      	subs	r3, #1
 8002478:	2b02      	cmp	r3, #2
 800247a:	d811      	bhi.n	80024a0 <USBD_StdItfReq+0x44>
      if (LOBYTE(req->wIndex) <= USBD_MAX_NUM_INTERFACES)
 800247c:	7933      	ldrb	r3, [r6, #4]
 800247e:	2b01      	cmp	r3, #1
 8002480:	d80e      	bhi.n	80024a0 <USBD_StdItfReq+0x44>
        ret = (USBD_StatusTypeDef)pdev->pClass->Setup(pdev, req);
 8002482:	f8d4 32b8 	ldr.w	r3, [r4, #696]	; 0x2b8
 8002486:	4631      	mov	r1, r6
 8002488:	689b      	ldr	r3, [r3, #8]
 800248a:	4620      	mov	r0, r4
 800248c:	4798      	blx	r3
        if ((req->wLength == 0U) && (ret == USBD_OK))
 800248e:	88f3      	ldrh	r3, [r6, #6]
        ret = (USBD_StatusTypeDef)pdev->pClass->Setup(pdev, req);
 8002490:	4605      	mov	r5, r0
        if ((req->wLength == 0U) && (ret == USBD_OK))
 8002492:	b91b      	cbnz	r3, 800249c <USBD_StdItfReq+0x40>
 8002494:	b910      	cbnz	r0, 800249c <USBD_StdItfReq+0x40>
          (void)USBD_CtlSendStatus(pdev);
 8002496:	4620      	mov	r0, r4
 8002498:	f000 f900 	bl	800269c <USBD_CtlSendStatus>
}
 800249c:	4628      	mov	r0, r5
 800249e:	bd70      	pop	{r4, r5, r6, pc}
      USBD_CtlError(pdev, req);
 80024a0:	4620      	mov	r0, r4
    USBD_CtlError(pdev, req);
 80024a2:	f7ff fe90 	bl	80021c6 <USBD_CtlError.constprop.1>
  USBD_StatusTypeDef ret = USBD_OK;
 80024a6:	2500      	movs	r5, #0
    break;
 80024a8:	e7f8      	b.n	800249c <USBD_StdItfReq+0x40>

080024aa <USBD_StdEPReq>:
{
 80024aa:	b570      	push	{r4, r5, r6, lr}
  switch (req->bmRequest & USB_REQ_TYPE_MASK)
 80024ac:	780b      	ldrb	r3, [r1, #0]
 80024ae:	f003 0360 	and.w	r3, r3, #96	; 0x60
 80024b2:	2b20      	cmp	r3, #32
{
 80024b4:	4604      	mov	r4, r0
 80024b6:	460d      	mov	r5, r1
  switch (req->bmRequest & USB_REQ_TYPE_MASK)
 80024b8:	d013      	beq.n	80024e2 <USBD_StdEPReq+0x38>
 80024ba:	2b40      	cmp	r3, #64	; 0x40
 80024bc:	d011      	beq.n	80024e2 <USBD_StdEPReq+0x38>
 80024be:	b96b      	cbnz	r3, 80024dc <USBD_StdEPReq+0x32>
    switch (req->bRequest)
 80024c0:	786a      	ldrb	r2, [r5, #1]
  ep_addr = LOBYTE(req->wIndex);
 80024c2:	888b      	ldrh	r3, [r1, #4]
    switch (req->bRequest)
 80024c4:	2a01      	cmp	r2, #1
  ep_addr = LOBYTE(req->wIndex);
 80024c6:	b2d9      	uxtb	r1, r3
    switch (req->bRequest)
 80024c8:	d020      	beq.n	800250c <USBD_StdEPReq+0x62>
 80024ca:	d33f      	bcc.n	800254c <USBD_StdEPReq+0xa2>
 80024cc:	2a03      	cmp	r2, #3
 80024ce:	d105      	bne.n	80024dc <USBD_StdEPReq+0x32>
      switch (pdev->dev_state)
 80024d0:	f890 329c 	ldrb.w	r3, [r0, #668]	; 0x29c
 80024d4:	2b02      	cmp	r3, #2
 80024d6:	d030      	beq.n	800253a <USBD_StdEPReq+0x90>
 80024d8:	2b03      	cmp	r3, #3
 80024da:	d00a      	beq.n	80024f2 <USBD_StdEPReq+0x48>
    USBD_CtlError(pdev, req);
 80024dc:	f7ff fe73 	bl	80021c6 <USBD_CtlError.constprop.1>
    break;
 80024e0:	e012      	b.n	8002508 <USBD_StdEPReq+0x5e>
    ret = (USBD_StatusTypeDef)pdev->pClass->Setup(pdev, req);
 80024e2:	f8d4 32b8 	ldr.w	r3, [r4, #696]	; 0x2b8
 80024e6:	4629      	mov	r1, r5
 80024e8:	4620      	mov	r0, r4
 80024ea:	689b      	ldr	r3, [r3, #8]
}
 80024ec:	e8bd 4070 	ldmia.w	sp!, {r4, r5, r6, lr}
    ret = (USBD_StatusTypeDef)pdev->pClass->Setup(pdev, req);
 80024f0:	4718      	bx	r3
        if (req->wValue == USB_FEATURE_EP_HALT)
 80024f2:	886b      	ldrh	r3, [r5, #2]
 80024f4:	b92b      	cbnz	r3, 8002502 <USBD_StdEPReq+0x58>
          if ((ep_addr != 0x00U) && (ep_addr != 0x80U) && (req->wLength == 0x00U))
 80024f6:	064a      	lsls	r2, r1, #25
 80024f8:	d003      	beq.n	8002502 <USBD_StdEPReq+0x58>
 80024fa:	88eb      	ldrh	r3, [r5, #6]
 80024fc:	b90b      	cbnz	r3, 8002502 <USBD_StdEPReq+0x58>
            (void)USBD_LL_StallEP(pdev, ep_addr);
 80024fe:	f000 fbef 	bl	8002ce0 <USBD_LL_StallEP>
        (void)USBD_CtlSendStatus(pdev);
 8002502:	4620      	mov	r0, r4
 8002504:	f000 f8ca 	bl	800269c <USBD_CtlSendStatus>
}
 8002508:	2000      	movs	r0, #0
 800250a:	bd70      	pop	{r4, r5, r6, pc}
      switch (pdev->dev_state)
 800250c:	f890 329c 	ldrb.w	r3, [r0, #668]	; 0x29c
 8002510:	2b02      	cmp	r3, #2
 8002512:	d012      	beq.n	800253a <USBD_StdEPReq+0x90>
 8002514:	2b03      	cmp	r3, #3
 8002516:	d1e1      	bne.n	80024dc <USBD_StdEPReq+0x32>
        if (req->wValue == USB_FEATURE_EP_HALT)
 8002518:	886b      	ldrh	r3, [r5, #2]
 800251a:	2b00      	cmp	r3, #0
 800251c:	d1f4      	bne.n	8002508 <USBD_StdEPReq+0x5e>
          if ((ep_addr & 0x7FU) != 0x00U)
 800251e:	064e      	lsls	r6, r1, #25
 8002520:	d001      	beq.n	8002526 <USBD_StdEPReq+0x7c>
            (void)USBD_LL_ClearStallEP(pdev, ep_addr);
 8002522:	f000 fbeb 	bl	8002cfc <USBD_LL_ClearStallEP>
          (void)USBD_CtlSendStatus(pdev);
 8002526:	4620      	mov	r0, r4
 8002528:	f000 f8b8 	bl	800269c <USBD_CtlSendStatus>
          (USBD_StatusTypeDef)pdev->pClass->Setup(pdev, req);
 800252c:	f8d4 32b8 	ldr.w	r3, [r4, #696]	; 0x2b8
 8002530:	4629      	mov	r1, r5
 8002532:	689b      	ldr	r3, [r3, #8]
 8002534:	4620      	mov	r0, r4
 8002536:	4798      	blx	r3
 8002538:	e7e6      	b.n	8002508 <USBD_StdEPReq+0x5e>
        if ((ep_addr != 0x00U) && (ep_addr != 0x80U))
 800253a:	064b      	lsls	r3, r1, #25
 800253c:	d017      	beq.n	800256e <USBD_StdEPReq+0xc4>
          (void)USBD_LL_StallEP(pdev, ep_addr);
 800253e:	f000 fbcf 	bl	8002ce0 <USBD_LL_StallEP>
          (void)USBD_LL_StallEP(pdev, 0x80U);
 8002542:	2180      	movs	r1, #128	; 0x80
 8002544:	4620      	mov	r0, r4
 8002546:	f000 fbcb 	bl	8002ce0 <USBD_LL_StallEP>
 800254a:	e7dd      	b.n	8002508 <USBD_StdEPReq+0x5e>
      switch (pdev->dev_state)
 800254c:	f890 229c 	ldrb.w	r2, [r0, #668]	; 0x29c
 8002550:	2a02      	cmp	r2, #2
 8002552:	d00e      	beq.n	8002572 <USBD_StdEPReq+0xc8>
 8002554:	2a03      	cmp	r2, #3
 8002556:	d1c1      	bne.n	80024dc <USBD_StdEPReq+0x32>
        if ((ep_addr & 0x80U) == 0x80U)
 8002558:	f013 0f80 	tst.w	r3, #128	; 0x80
 800255c:	f001 020f 	and.w	r2, r1, #15
 8002560:	f04f 0314 	mov.w	r3, #20
          if (pdev->ep_in[ep_addr & 0xFU].is_used == 0U)
 8002564:	fb03 0202 	mla	r2, r3, r2, r0
        if ((ep_addr & 0x80U) == 0x80U)
 8002568:	d012      	beq.n	8002590 <USBD_StdEPReq+0xe6>
          if (pdev->ep_in[ep_addr & 0xFU].is_used == 0U)
 800256a:	8c92      	ldrh	r2, [r2, #36]	; 0x24
 800256c:	b9da      	cbnz	r2, 80025a6 <USBD_StdEPReq+0xfc>
          USBD_CtlError(pdev, req);
 800256e:	4620      	mov	r0, r4
 8002570:	e7b4      	b.n	80024dc <USBD_StdEPReq+0x32>
        if ((ep_addr != 0x00U) && (ep_addr != 0x80U))
 8002572:	064a      	lsls	r2, r1, #25
 8002574:	d1fb      	bne.n	800256e <USBD_StdEPReq+0xc4>
        pep = ((ep_addr & 0x80U) == 0x80U) ? &pdev->ep_in[ep_addr & 0x7FU] : \
 8002576:	061b      	lsls	r3, r3, #24
 8002578:	bf4c      	ite	mi
 800257a:	f100 0114 	addmi.w	r1, r0, #20
 800257e:	f500 71aa 	addpl.w	r1, r0, #340	; 0x154
        pep->status = 0x0000U;
 8002582:	2300      	movs	r3, #0
 8002584:	600b      	str	r3, [r1, #0]
        (void)USBD_CtlSendData(pdev, (uint8_t *)&pep->status, 2U);
 8002586:	2202      	movs	r2, #2
          (void)USBD_CtlSendData(pdev, (uint8_t *)&pep->status, 2U);
 8002588:	4620      	mov	r0, r4
 800258a:	f000 f85b 	bl	8002644 <USBD_CtlSendData>
          break;
 800258e:	e7bb      	b.n	8002508 <USBD_StdEPReq+0x5e>
          if (pdev->ep_out[ep_addr & 0xFU].is_used == 0U)
 8002590:	f8b2 2164 	ldrh.w	r2, [r2, #356]	; 0x164
 8002594:	2a00      	cmp	r2, #0
 8002596:	d0ea      	beq.n	800256e <USBD_StdEPReq+0xc4>
        pep = ((ep_addr & 0x80U) == 0x80U) ? &pdev->ep_in[ep_addr & 0x7FU] : \
 8002598:	f001 057f 	and.w	r5, r1, #127	; 0x7f
 800259c:	fb03 0505 	mla	r5, r3, r5, r0
 80025a0:	f505 75aa 	add.w	r5, r5, #340	; 0x154
 80025a4:	e004      	b.n	80025b0 <USBD_StdEPReq+0x106>
 80025a6:	f001 057f 	and.w	r5, r1, #127	; 0x7f
 80025aa:	fb05 3503 	mla	r5, r5, r3, r3
 80025ae:	4405      	add	r5, r0
          if ((ep_addr == 0x00U) || (ep_addr == 0x80U))
 80025b0:	f011 037f 	ands.w	r3, r1, #127	; 0x7f
 80025b4:	d103      	bne.n	80025be <USBD_StdEPReq+0x114>
            pep->status = 0x0001U;
 80025b6:	602b      	str	r3, [r5, #0]
          (void)USBD_CtlSendData(pdev, (uint8_t *)&pep->status, 2U);
 80025b8:	2202      	movs	r2, #2
 80025ba:	4629      	mov	r1, r5
 80025bc:	e7e4      	b.n	8002588 <USBD_StdEPReq+0xde>
          else if (USBD_LL_IsStallEP(pdev, ep_addr) != 0U)
 80025be:	4620      	mov	r0, r4
 80025c0:	f000 fbaa 	bl	8002d18 <USBD_LL_IsStallEP>
 80025c4:	b108      	cbz	r0, 80025ca <USBD_StdEPReq+0x120>
            pep->status = 0x0001U;
 80025c6:	2301      	movs	r3, #1
 80025c8:	e7f5      	b.n	80025b6 <USBD_StdEPReq+0x10c>
            pep->status = 0x0000U;
 80025ca:	6028      	str	r0, [r5, #0]
 80025cc:	e7f4      	b.n	80025b8 <USBD_StdEPReq+0x10e>

080025ce <USBD_ParseSetupRequest>:
  req->bmRequest = *(uint8_t *)(pbuff);
 80025ce:	780b      	ldrb	r3, [r1, #0]
 80025d0:	7003      	strb	r3, [r0, #0]
  req->bRequest = *(uint8_t *)(pbuff);
 80025d2:	784b      	ldrb	r3, [r1, #1]
 80025d4:	7043      	strb	r3, [r0, #1]

  _Byte1 = *(uint8_t *)_pbuff;
  _pbuff++;
  _Byte2 = *(uint8_t *)_pbuff;

  _SwapVal = (_Byte2 << 8) | _Byte1;
 80025d6:	78ca      	ldrb	r2, [r1, #3]
 80025d8:	788b      	ldrb	r3, [r1, #2]
 80025da:	ea43 2302 	orr.w	r3, r3, r2, lsl #8
  req->wValue = SWAPBYTE(pbuff);
 80025de:	8043      	strh	r3, [r0, #2]
 80025e0:	794a      	ldrb	r2, [r1, #5]
 80025e2:	790b      	ldrb	r3, [r1, #4]
 80025e4:	ea43 2302 	orr.w	r3, r3, r2, lsl #8
  req->wIndex = SWAPBYTE(pbuff);
 80025e8:	8083      	strh	r3, [r0, #4]
 80025ea:	79ca      	ldrb	r2, [r1, #7]
 80025ec:	798b      	ldrb	r3, [r1, #6]
 80025ee:	ea43 2302 	orr.w	r3, r3, r2, lsl #8
  req->wLength = SWAPBYTE(pbuff);
 80025f2:	80c3      	strh	r3, [r0, #6]
 80025f4:	4770      	bx	lr

080025f6 <USBD_CtlError>:
{
 80025f6:	b510      	push	{r4, lr}
  (void)USBD_LL_StallEP(pdev, 0x80U);
 80025f8:	2180      	movs	r1, #128	; 0x80
{
 80025fa:	4604      	mov	r4, r0
  (void)USBD_LL_StallEP(pdev, 0x80U);
 80025fc:	f000 fb70 	bl	8002ce0 <USBD_LL_StallEP>
  (void)USBD_LL_StallEP(pdev, 0U);
 8002600:	4620      	mov	r0, r4
 8002602:	2100      	movs	r1, #0
}
 8002604:	e8bd 4010 	ldmia.w	sp!, {r4, lr}
  (void)USBD_LL_StallEP(pdev, 0U);
 8002608:	f000 bb6a 	b.w	8002ce0 <USBD_LL_StallEP>

0800260c <USBD_GetString>:
  * @param  unicode : Formatted string buffer (unicode)
  * @param  len : descriptor length
  * @retval None
  */
void USBD_GetString(uint8_t *desc, uint8_t *unicode, uint16_t *len)
{
 800260c:	b530      	push	{r4, r5, lr}
  uint8_t idx = 0U;
  uint8_t *pdesc;

  if (desc == NULL)
 800260e:	b188      	cbz	r0, 8002634 <USBD_GetString+0x28>
 8002610:	4605      	mov	r5, r0
 8002612:	1a2b      	subs	r3, r5, r0
static uint8_t USBD_GetLen(uint8_t *buf)
{
  uint8_t  len = 0U;
  uint8_t *pbuff = buf;

  while (*pbuff != (uint8_t)'\0')
 8002614:	f815 4b01 	ldrb.w	r4, [r5], #1
 8002618:	b2db      	uxtb	r3, r3
 800261a:	2c00      	cmp	r4, #0
 800261c:	d1f9      	bne.n	8002612 <USBD_GetString+0x6>
  *len = ((uint16_t)USBD_GetLen(pdesc) * 2U) + 2U;
 800261e:	3301      	adds	r3, #1
 8002620:	005b      	lsls	r3, r3, #1
 8002622:	8013      	strh	r3, [r2, #0]
  unicode[idx] = *(uint8_t *)len;
 8002624:	700b      	strb	r3, [r1, #0]
  unicode[idx] = USB_DESC_TYPE_STRING;
 8002626:	2303      	movs	r3, #3
 8002628:	704b      	strb	r3, [r1, #1]
 800262a:	3801      	subs	r0, #1
  idx++;
 800262c:	2302      	movs	r3, #2
  while (*pdesc != (uint8_t)'\0')
 800262e:	f810 2f01 	ldrb.w	r2, [r0, #1]!
 8002632:	b902      	cbnz	r2, 8002636 <USBD_GetString+0x2a>
 8002634:	bd30      	pop	{r4, r5, pc}
    unicode[idx] = *pdesc;
 8002636:	54ca      	strb	r2, [r1, r3]
    idx++;
 8002638:	1c5a      	adds	r2, r3, #1
    unicode[idx] = 0U;
 800263a:	b2d2      	uxtb	r2, r2
    idx++;
 800263c:	3302      	adds	r3, #2
    unicode[idx] = 0U;
 800263e:	548c      	strb	r4, [r1, r2]
    idx++;
 8002640:	b2db      	uxtb	r3, r3
 8002642:	e7f4      	b.n	800262e <USBD_GetString+0x22>

08002644 <USBD_CtlSendData>:
* @param  len: length of data to be sent
* @retval status
*/
USBD_StatusTypeDef USBD_CtlSendData(USBD_HandleTypeDef *pdev,
                                    uint8_t *pbuf, uint32_t len)
{
 8002644:	b510      	push	{r4, lr}
 8002646:	4613      	mov	r3, r2
  /* Set EP0 State */
  pdev->ep0_state = USBD_EP0_DATA_IN;
 8002648:	2202      	movs	r2, #2
 800264a:	f8c0 2294 	str.w	r2, [r0, #660]	; 0x294
  pdev->ep_in[0].total_length = len;
 800264e:	6183      	str	r3, [r0, #24]
  pdev->ep_in[0].rem_length = len;

  /* Start the transfer */
  (void)USBD_LL_Transmit(pdev, 0x00U, pbuf, len);
 8002650:	460a      	mov	r2, r1
  pdev->ep_in[0].rem_length = len;
 8002652:	61c3      	str	r3, [r0, #28]
  (void)USBD_LL_Transmit(pdev, 0x00U, pbuf, len);
 8002654:	2100      	movs	r1, #0
 8002656:	f000 fb81 	bl	8002d5c <USBD_LL_Transmit>

  return USBD_OK;
}
 800265a:	2000      	movs	r0, #0
 800265c:	bd10      	pop	{r4, pc}

0800265e <USBD_CtlContinueSendData>:
* @param  len: length of data to be sent
* @retval status
*/
USBD_StatusTypeDef USBD_CtlContinueSendData(USBD_HandleTypeDef *pdev,
                                            uint8_t *pbuf, uint32_t len)
{
 800265e:	b508      	push	{r3, lr}
  /* Start the next transfer */
  (void)USBD_LL_Transmit(pdev, 0x00U, pbuf, len);
 8002660:	4613      	mov	r3, r2
 8002662:	460a      	mov	r2, r1
 8002664:	2100      	movs	r1, #0
 8002666:	f000 fb79 	bl	8002d5c <USBD_LL_Transmit>

  return USBD_OK;
}
 800266a:	2000      	movs	r0, #0
 800266c:	bd08      	pop	{r3, pc}

0800266e <USBD_CtlPrepareRx>:
* @param  len: length of data to be received
* @retval status
*/
USBD_StatusTypeDef USBD_CtlPrepareRx(USBD_HandleTypeDef *pdev,
                                     uint8_t *pbuf, uint32_t len)
{
 800266e:	b510      	push	{r4, lr}
 8002670:	4613      	mov	r3, r2
  /* Set EP0 State */
  pdev->ep0_state = USBD_EP0_DATA_OUT;
 8002672:	2203      	movs	r2, #3
 8002674:	f8c0 2294 	str.w	r2, [r0, #660]	; 0x294
  pdev->ep_out[0].total_length = len;
 8002678:	f8c0 3158 	str.w	r3, [r0, #344]	; 0x158
  pdev->ep_out[0].rem_length = len;

  /* Start the transfer */
  (void)USBD_LL_PrepareReceive(pdev, 0U, pbuf, len);
 800267c:	460a      	mov	r2, r1
  pdev->ep_out[0].rem_length = len;
 800267e:	f8c0 315c 	str.w	r3, [r0, #348]	; 0x15c
  (void)USBD_LL_PrepareReceive(pdev, 0U, pbuf, len);
 8002682:	2100      	movs	r1, #0
 8002684:	f000 fb78 	bl	8002d78 <USBD_LL_PrepareReceive>

  return USBD_OK;
}
 8002688:	2000      	movs	r0, #0
 800268a:	bd10      	pop	{r4, pc}

0800268c <USBD_CtlContinueRx>:
* @param  len: length of data to be received
* @retval status
*/
USBD_StatusTypeDef USBD_CtlContinueRx(USBD_HandleTypeDef *pdev,
                                      uint8_t *pbuf, uint32_t len)
{
 800268c:	b508      	push	{r3, lr}
  (void)USBD_LL_PrepareReceive(pdev, 0U, pbuf, len);
 800268e:	4613      	mov	r3, r2
 8002690:	460a      	mov	r2, r1
 8002692:	2100      	movs	r1, #0
 8002694:	f000 fb70 	bl	8002d78 <USBD_LL_PrepareReceive>

  return USBD_OK;
}
 8002698:	2000      	movs	r0, #0
 800269a:	bd08      	pop	{r3, pc}

0800269c <USBD_CtlSendStatus>:
*         send zero lzngth packet on the ctl pipe
* @param  pdev: device instance
* @retval status
*/
USBD_StatusTypeDef USBD_CtlSendStatus(USBD_HandleTypeDef *pdev)
{
 800269c:	b508      	push	{r3, lr}
  /* Set EP0 State */
  pdev->ep0_state = USBD_EP0_STATUS_IN;
 800269e:	2304      	movs	r3, #4
 80026a0:	f8c0 3294 	str.w	r3, [r0, #660]	; 0x294

  /* Start the transfer */
  (void)USBD_LL_Transmit(pdev, 0x00U, NULL, 0U);
 80026a4:	2300      	movs	r3, #0
 80026a6:	461a      	mov	r2, r3
 80026a8:	4619      	mov	r1, r3
 80026aa:	f000 fb57 	bl	8002d5c <USBD_LL_Transmit>

  return USBD_OK;
}
 80026ae:	2000      	movs	r0, #0
 80026b0:	bd08      	pop	{r3, pc}

080026b2 <USBD_CtlReceiveStatus>:
*         receive zero lzngth packet on the ctl pipe
* @param  pdev: device instance
* @retval status
*/
USBD_StatusTypeDef USBD_CtlReceiveStatus(USBD_HandleTypeDef *pdev)
{
 80026b2:	b508      	push	{r3, lr}
  /* Set EP0 State */
  pdev->ep0_state = USBD_EP0_STATUS_OUT;
 80026b4:	2305      	movs	r3, #5
 80026b6:	f8c0 3294 	str.w	r3, [r0, #660]	; 0x294

  /* Start the transfer */
  (void)USBD_LL_PrepareReceive(pdev, 0U, NULL, 0U);
 80026ba:	2300      	movs	r3, #0
 80026bc:	461a      	mov	r2, r3
 80026be:	4619      	mov	r1, r3
 80026c0:	f000 fb5a 	bl	8002d78 <USBD_LL_PrepareReceive>

  return USBD_OK;
}
 80026c4:	2000      	movs	r0, #0
 80026c6:	bd08      	pop	{r3, pc}

080026c8 <MainApp>:
uint32_t encoder_new = 0;
char usbbuff[12];

void MainApp()
{
	if(ticker >= 100)
 80026c8:	4a1b      	ldr	r2, [pc, #108]	; (8002738 <MainApp+0x70>)
 80026ca:	8813      	ldrh	r3, [r2, #0]
 80026cc:	b29b      	uxth	r3, r3
 80026ce:	2b63      	cmp	r3, #99	; 0x63
{
 80026d0:	b570      	push	{r4, r5, r6, lr}
	if(ticker >= 100)
 80026d2:	d930      	bls.n	8002736 <MainApp+0x6e>
	{
		ticker = 0;
 80026d4:	2300      	movs	r3, #0
 80026d6:	8013      	strh	r3, [r2, #0]
  *         @arg @ref LL_GPIO_PIN_ALL
  * @retval None
  */
__STATIC_INLINE void LL_GPIO_TogglePin(GPIO_TypeDef *GPIOx, uint32_t PinMask)
{
  WRITE_REG(GPIOx->ODR, READ_REG(GPIOx->ODR) ^ PinMask);
 80026d8:	4a18      	ldr	r2, [pc, #96]	; (800273c <MainApp+0x74>)
		LL_GPIO_TogglePin(LED_GPIO_Port,LED_Pin);
		encoder_new = TIM4->CNT>>2;

		//Transmit USB only if there is encoder update
		if(encoder_old != encoder_new)
 80026da:	4c19      	ldr	r4, [pc, #100]	; (8002740 <MainApp+0x78>)
 80026dc:	6953      	ldr	r3, [r2, #20]
		encoder_new = TIM4->CNT>>2;
 80026de:	4d19      	ldr	r5, [pc, #100]	; (8002744 <MainApp+0x7c>)
 80026e0:	f483 7380 	eor.w	r3, r3, #256	; 0x100
 80026e4:	6153      	str	r3, [r2, #20]
 80026e6:	4b18      	ldr	r3, [pc, #96]	; (8002748 <MainApp+0x80>)
		if(encoder_old != encoder_new)
 80026e8:	6821      	ldr	r1, [r4, #0]
		encoder_new = TIM4->CNT>>2;
 80026ea:	6a58      	ldr	r0, [r3, #36]	; 0x24
 80026ec:	0880      	lsrs	r0, r0, #2
		if(encoder_old != encoder_new)
 80026ee:	4288      	cmp	r0, r1
		encoder_new = TIM4->CNT>>2;
 80026f0:	6028      	str	r0, [r5, #0]
		if(encoder_old != encoder_new)
 80026f2:	d020      	beq.n	8002736 <MainApp+0x6e>
		{
			itoa(encoder_new,(char *)usbbuff,10);
 80026f4:	220a      	movs	r2, #10
 80026f6:	4915      	ldr	r1, [pc, #84]	; (800274c <MainApp+0x84>)
			while((CDC_Transmit_FS(encoder_str,strlen((char *)encoder_str)) == USBD_BUSY));
 80026f8:	4e15      	ldr	r6, [pc, #84]	; (8002750 <MainApp+0x88>)
			itoa(encoder_new,(char *)usbbuff,10);
 80026fa:	f000 fc33 	bl	8002f64 <itoa>
			while((CDC_Transmit_FS(encoder_str,strlen((char *)encoder_str)) == USBD_BUSY));
 80026fe:	4630      	mov	r0, r6
 8002700:	f7fd fd62 	bl	80001c8 <strlen>
 8002704:	b281      	uxth	r1, r0
 8002706:	4630      	mov	r0, r6
 8002708:	f000 f9de 	bl	8002ac8 <CDC_Transmit_FS>
 800270c:	2801      	cmp	r0, #1
 800270e:	d0f6      	beq.n	80026fe <MainApp+0x36>
			while((CDC_Transmit_FS((uint8_t *)usbbuff,strlen(usbbuff)) == USBD_BUSY));
 8002710:	4e0e      	ldr	r6, [pc, #56]	; (800274c <MainApp+0x84>)
 8002712:	4630      	mov	r0, r6
 8002714:	f7fd fd58 	bl	80001c8 <strlen>
 8002718:	b281      	uxth	r1, r0
 800271a:	4630      	mov	r0, r6
 800271c:	f000 f9d4 	bl	8002ac8 <CDC_Transmit_FS>
 8002720:	2801      	cmp	r0, #1
 8002722:	d0f6      	beq.n	8002712 <MainApp+0x4a>
			while((CDC_Transmit_FS((uint8_t *)newline,2) == USBD_BUSY));
 8002724:	4e0b      	ldr	r6, [pc, #44]	; (8002754 <MainApp+0x8c>)
 8002726:	2102      	movs	r1, #2
 8002728:	4630      	mov	r0, r6
 800272a:	f000 f9cd 	bl	8002ac8 <CDC_Transmit_FS>
 800272e:	2801      	cmp	r0, #1
 8002730:	d0f9      	beq.n	8002726 <MainApp+0x5e>
			encoder_old = encoder_new;
 8002732:	682b      	ldr	r3, [r5, #0]
 8002734:	6023      	str	r3, [r4, #0]
 8002736:	bd70      	pop	{r4, r5, r6, pc}
 8002738:	20000224 	.word	0x20000224
 800273c:	40020400 	.word	0x40020400
 8002740:	20000210 	.word	0x20000210
 8002744:	2000020c 	.word	0x2000020c
 8002748:	40000800 	.word	0x40000800
 800274c:	20000226 	.word	0x20000226
 8002750:	20000117 	.word	0x20000117
 8002754:	2000011b 	.word	0x2000011b

08002758 <LL_AHB1_GRP1_EnableClock>:
  * @retval None
*/
__STATIC_INLINE void LL_AHB1_GRP1_EnableClock(uint32_t Periphs)
{
  __IO uint32_t tmpreg;
  SET_BIT(RCC->AHB1ENR, Periphs);
 8002758:	4b05      	ldr	r3, [pc, #20]	; (8002770 <LL_AHB1_GRP1_EnableClock+0x18>)
 800275a:	6b1a      	ldr	r2, [r3, #48]	; 0x30
 800275c:	4302      	orrs	r2, r0
 800275e:	631a      	str	r2, [r3, #48]	; 0x30
  /* Delay after an RCC peripheral clock enabling */
  tmpreg = READ_BIT(RCC->AHB1ENR, Periphs);
 8002760:	6b1b      	ldr	r3, [r3, #48]	; 0x30
{
 8002762:	b082      	sub	sp, #8
  tmpreg = READ_BIT(RCC->AHB1ENR, Periphs);
 8002764:	4018      	ands	r0, r3
 8002766:	9001      	str	r0, [sp, #4]
  (void)tmpreg;
 8002768:	9b01      	ldr	r3, [sp, #4]
}
 800276a:	b002      	add	sp, #8
 800276c:	4770      	bx	lr
 800276e:	bf00      	nop
 8002770:	40023800 	.word	0x40023800

08002774 <SystemClock_Config>:
  *         @arg @ref LL_FLASH_LATENCY_15
  * @retval None
  */
__STATIC_INLINE void LL_FLASH_SetLatency(uint32_t Latency)
{
  MODIFY_REG(FLASH->ACR, FLASH_ACR_LATENCY, Latency);
 8002774:	4a29      	ldr	r2, [pc, #164]	; (800281c <SystemClock_Config+0xa8>)
/**
  * @brief System Clock Configuration
  * @retval None
  */
void SystemClock_Config(void)
{
 8002776:	b508      	push	{r3, lr}
 8002778:	6813      	ldr	r3, [r2, #0]
 800277a:	f023 030f 	bic.w	r3, r3, #15
 800277e:	f043 0305 	orr.w	r3, r3, #5
 8002782:	6013      	str	r3, [r2, #0]
  *         @arg @ref LL_FLASH_LATENCY_14
  *         @arg @ref LL_FLASH_LATENCY_15
  */
__STATIC_INLINE uint32_t LL_FLASH_GetLatency(void)
{
  return (uint32_t)(READ_BIT(FLASH->ACR, FLASH_ACR_LATENCY));
 8002784:	6813      	ldr	r3, [r2, #0]
  *         (*) LL_PWR_REGU_VOLTAGE_SCALE1 is not available for STM32F401xx devices
  * @retval None
  */
__STATIC_INLINE void LL_PWR_SetRegulVoltageScaling(uint32_t VoltageScaling)
{
  MODIFY_REG(PWR->CR, PWR_CR_VOS, VoltageScaling);
 8002786:	f5a2 32e6 	sub.w	r2, r2, #117760	; 0x1cc00
 800278a:	6813      	ldr	r3, [r2, #0]
 800278c:	f443 4380 	orr.w	r3, r3, #16384	; 0x4000
 8002790:	6013      	str	r3, [r2, #0]
  * @rmtoll CR           HSEON         LL_RCC_HSE_Enable
  * @retval None
  */
__STATIC_INLINE void LL_RCC_HSE_Enable(void)
{
  SET_BIT(RCC->CR, RCC_CR_HSEON);
 8002792:	4b23      	ldr	r3, [pc, #140]	; (8002820 <SystemClock_Config+0xac>)
 8002794:	681a      	ldr	r2, [r3, #0]
 8002796:	f442 3280 	orr.w	r2, r2, #65536	; 0x10000
 800279a:	601a      	str	r2, [r3, #0]
  * @rmtoll CR           HSERDY        LL_RCC_HSE_IsReady
  * @retval State of bit (1 or 0).
  */
__STATIC_INLINE uint32_t LL_RCC_HSE_IsReady(void)
{
  return (READ_BIT(RCC->CR, RCC_CR_HSERDY) == (RCC_CR_HSERDY));
 800279c:	681a      	ldr	r2, [r3, #0]
  }
  LL_PWR_SetRegulVoltageScaling(LL_PWR_REGU_VOLTAGE_SCALE1);
  LL_RCC_HSE_Enable();

   /* Wait till HSE is ready */
  while(LL_RCC_HSE_IsReady() != 1)
 800279e:	0391      	lsls	r1, r2, #14
 80027a0:	d5fc      	bpl.n	800279c <SystemClock_Config+0x28>
  *         (*) value not defined in all devices.
  * @retval None
  */
__STATIC_INLINE void LL_RCC_PLL_ConfigDomain_SYS(uint32_t Source, uint32_t PLLM, uint32_t PLLN, uint32_t PLLP_R)
{
  MODIFY_REG(RCC->PLLCFGR, RCC_PLLCFGR_PLLSRC | RCC_PLLCFGR_PLLM | RCC_PLLCFGR_PLLN,
 80027a2:	685a      	ldr	r2, [r3, #4]
 80027a4:	491f      	ldr	r1, [pc, #124]	; (8002824 <SystemClock_Config+0xb0>)
 80027a6:	4011      	ands	r1, r2
 80027a8:	4a1f      	ldr	r2, [pc, #124]	; (8002828 <SystemClock_Config+0xb4>)
 80027aa:	430a      	orrs	r2, r1
 80027ac:	605a      	str	r2, [r3, #4]
             Source | PLLM | PLLN << RCC_PLLCFGR_PLLN_Pos);
  MODIFY_REG(RCC->PLLCFGR, RCC_PLLCFGR_PLLP, PLLP_R);
 80027ae:	685a      	ldr	r2, [r3, #4]
  *         @arg @ref LL_RCC_PLLQ_DIV_15
  * @retval None
  */
__STATIC_INLINE void LL_RCC_PLL_ConfigDomain_48M(uint32_t Source, uint32_t PLLM, uint32_t PLLN, uint32_t PLLQ)
{
  MODIFY_REG(RCC->PLLCFGR, RCC_PLLCFGR_PLLSRC | RCC_PLLCFGR_PLLM | RCC_PLLCFGR_PLLN | RCC_PLLCFGR_PLLQ,
 80027b0:	491e      	ldr	r1, [pc, #120]	; (800282c <SystemClock_Config+0xb8>)
  MODIFY_REG(RCC->PLLCFGR, RCC_PLLCFGR_PLLP, PLLP_R);
 80027b2:	f422 3240 	bic.w	r2, r2, #196608	; 0x30000
 80027b6:	605a      	str	r2, [r3, #4]
  MODIFY_REG(RCC->PLLCFGR, RCC_PLLCFGR_PLLSRC | RCC_PLLCFGR_PLLM | RCC_PLLCFGR_PLLN | RCC_PLLCFGR_PLLQ,
 80027b8:	685a      	ldr	r2, [r3, #4]
 80027ba:	4011      	ands	r1, r2
 80027bc:	4a1c      	ldr	r2, [pc, #112]	; (8002830 <SystemClock_Config+0xbc>)
 80027be:	430a      	orrs	r2, r1
 80027c0:	605a      	str	r2, [r3, #4]
  SET_BIT(RCC->CR, RCC_CR_PLLON);
 80027c2:	681a      	ldr	r2, [r3, #0]
 80027c4:	f042 7280 	orr.w	r2, r2, #16777216	; 0x1000000
 80027c8:	601a      	str	r2, [r3, #0]
  return (READ_BIT(RCC->CR, RCC_CR_PLLRDY) == (RCC_CR_PLLRDY));
 80027ca:	4b15      	ldr	r3, [pc, #84]	; (8002820 <SystemClock_Config+0xac>)
 80027cc:	681a      	ldr	r2, [r3, #0]
  LL_RCC_PLL_ConfigDomain_SYS(LL_RCC_PLLSOURCE_HSE, LL_RCC_PLLM_DIV_4, 168, LL_RCC_PLLP_DIV_2);
  LL_RCC_PLL_ConfigDomain_48M(LL_RCC_PLLSOURCE_HSE, LL_RCC_PLLM_DIV_4, 168, LL_RCC_PLLQ_DIV_7);
  LL_RCC_PLL_Enable();

   /* Wait till PLL is ready */
  while(LL_RCC_PLL_IsReady() != 1)
 80027ce:	0192      	lsls	r2, r2, #6
 80027d0:	d5fc      	bpl.n	80027cc <SystemClock_Config+0x58>
  MODIFY_REG(RCC->CFGR, RCC_CFGR_HPRE, Prescaler);
 80027d2:	689a      	ldr	r2, [r3, #8]
 80027d4:	f022 02f0 	bic.w	r2, r2, #240	; 0xf0
 80027d8:	609a      	str	r2, [r3, #8]
  MODIFY_REG(RCC->CFGR, RCC_CFGR_PPRE1, Prescaler);
 80027da:	689a      	ldr	r2, [r3, #8]
 80027dc:	f422 52e0 	bic.w	r2, r2, #7168	; 0x1c00
 80027e0:	f442 52a0 	orr.w	r2, r2, #5120	; 0x1400
 80027e4:	609a      	str	r2, [r3, #8]
  MODIFY_REG(RCC->CFGR, RCC_CFGR_PPRE2, Prescaler);
 80027e6:	689a      	ldr	r2, [r3, #8]
 80027e8:	f422 4260 	bic.w	r2, r2, #57344	; 0xe000
 80027ec:	f442 4200 	orr.w	r2, r2, #32768	; 0x8000
 80027f0:	609a      	str	r2, [r3, #8]
  MODIFY_REG(RCC->CFGR, RCC_CFGR_SW, Source);
 80027f2:	689a      	ldr	r2, [r3, #8]
 80027f4:	f022 0203 	bic.w	r2, r2, #3
 80027f8:	f042 0202 	orr.w	r2, r2, #2
 80027fc:	609a      	str	r2, [r3, #8]
  return (uint32_t)(READ_BIT(RCC->CFGR, RCC_CFGR_SWS));
 80027fe:	4a08      	ldr	r2, [pc, #32]	; (8002820 <SystemClock_Config+0xac>)
 8002800:	6893      	ldr	r3, [r2, #8]
 8002802:	f003 030c 	and.w	r3, r3, #12
  LL_RCC_SetAPB1Prescaler(LL_RCC_APB1_DIV_4);
  LL_RCC_SetAPB2Prescaler(LL_RCC_APB2_DIV_2);
  LL_RCC_SetSysClkSource(LL_RCC_SYS_CLKSOURCE_PLL);

   /* Wait till System clock is ready */
  while(LL_RCC_GetSysClkSource() != LL_RCC_SYS_CLKSOURCE_STATUS_PLL)
 8002806:	2b08      	cmp	r3, #8
 8002808:	d1fa      	bne.n	8002800 <SystemClock_Config+0x8c>
  {
  
  }
  LL_SetSystemCoreClock(168000000);
 800280a:	480a      	ldr	r0, [pc, #40]	; (8002834 <SystemClock_Config+0xc0>)
 800280c:	f7ff f9ee 	bl	8001bec <LL_SetSystemCoreClock>

   /* Update the time base */
  if (HAL_InitTick (TICK_INT_PRIORITY) != HAL_OK)
 8002810:	2000      	movs	r0, #0
  {
    Error_Handler();  
  };
}
 8002812:	e8bd 4008 	ldmia.w	sp!, {r3, lr}
  if (HAL_InitTick (TICK_INT_PRIORITY) != HAL_OK)
 8002816:	f7fd bcdf 	b.w	80001d8 <HAL_InitTick>
 800281a:	bf00      	nop
 800281c:	40023c00 	.word	0x40023c00
 8002820:	40023800 	.word	0x40023800
 8002824:	ffbf8000 	.word	0xffbf8000
 8002828:	00402a04 	.word	0x00402a04
 800282c:	f0bf8000 	.word	0xf0bf8000
 8002830:	07402a04 	.word	0x07402a04
 8002834:	0a037a00 	.word	0x0a037a00

08002838 <main>:
{
 8002838:	b500      	push	{lr}
 800283a:	b08d      	sub	sp, #52	; 0x34
  HAL_Init();
 800283c:	f7fd fcf0 	bl	8000220 <HAL_Init>
  SystemClock_Config();
 8002840:	f7ff ff98 	bl	8002774 <SystemClock_Config>
  * @param None
  * @retval None
  */
static void MX_GPIO_Init(void)
{
  LL_GPIO_InitTypeDef GPIO_InitStruct = {0};
 8002844:	2218      	movs	r2, #24
 8002846:	2100      	movs	r1, #0
 8002848:	a803      	add	r0, sp, #12
 800284a:	f000 fb9d 	bl	8002f88 <memset>

  /* GPIO Ports Clock Enable */
  LL_AHB1_GRP1_EnableClock(LL_AHB1_GRP1_PERIPH_GPIOH);
 800284e:	2080      	movs	r0, #128	; 0x80
 8002850:	f7ff ff82 	bl	8002758 <LL_AHB1_GRP1_EnableClock>
  LL_AHB1_GRP1_EnableClock(LL_AHB1_GRP1_PERIPH_GPIOA);
 8002854:	2001      	movs	r0, #1
 8002856:	f7ff ff7f 	bl	8002758 <LL_AHB1_GRP1_EnableClock>
  LL_AHB1_GRP1_EnableClock(LL_AHB1_GRP1_PERIPH_GPIOB);
 800285a:	2002      	movs	r0, #2
 800285c:	f7ff ff7c 	bl	8002758 <LL_AHB1_GRP1_EnableClock>
  WRITE_REG(GPIOx->BSRR, (PinMask << 16));
 8002860:	481f      	ldr	r0, [pc, #124]	; (80028e0 <main+0xa8>)
  htim4.Instance = TIM4;
 8002862:	4d20      	ldr	r5, [pc, #128]	; (80028e4 <main+0xac>)
 8002864:	f04f 7380 	mov.w	r3, #16777216	; 0x1000000
  LL_GPIO_ResetOutputPin(LED_GPIO_Port, LED_Pin);

  /**/
  GPIO_InitStruct.Pin = LED_Pin;
  GPIO_InitStruct.Mode = LL_GPIO_MODE_OUTPUT;
  GPIO_InitStruct.Speed = LL_GPIO_SPEED_FREQ_LOW;
 8002868:	2400      	movs	r4, #0
 800286a:	6183      	str	r3, [r0, #24]
  GPIO_InitStruct.Mode = LL_GPIO_MODE_OUTPUT;
 800286c:	2601      	movs	r6, #1
  GPIO_InitStruct.Pin = LED_Pin;
 800286e:	f44f 7380 	mov.w	r3, #256	; 0x100
  GPIO_InitStruct.OutputType = LL_GPIO_OUTPUT_PUSHPULL;
  GPIO_InitStruct.Pull = LL_GPIO_PULL_NO;
  LL_GPIO_Init(LED_GPIO_Port, &GPIO_InitStruct);
 8002872:	a903      	add	r1, sp, #12
  GPIO_InitStruct.Pin = LED_Pin;
 8002874:	9303      	str	r3, [sp, #12]
  GPIO_InitStruct.Mode = LL_GPIO_MODE_OUTPUT;
 8002876:	9604      	str	r6, [sp, #16]
  GPIO_InitStruct.Speed = LL_GPIO_SPEED_FREQ_LOW;
 8002878:	9405      	str	r4, [sp, #20]
  GPIO_InitStruct.OutputType = LL_GPIO_OUTPUT_PUSHPULL;
 800287a:	9406      	str	r4, [sp, #24]
  GPIO_InitStruct.Pull = LL_GPIO_PULL_NO;
 800287c:	9407      	str	r4, [sp, #28]
  LL_GPIO_Init(LED_GPIO_Port, &GPIO_InitStruct);
 800287e:	f7fe fc13 	bl	80010a8 <LL_GPIO_Init>
  MX_USB_DEVICE_Init();
 8002882:	f000 f8c7 	bl	8002a14 <MX_USB_DEVICE_Init>
  TIM_Encoder_InitTypeDef sConfig = {0};
 8002886:	2224      	movs	r2, #36	; 0x24
 8002888:	4621      	mov	r1, r4
 800288a:	a803      	add	r0, sp, #12
 800288c:	f000 fb7c 	bl	8002f88 <memset>
  htim4.Instance = TIM4;
 8002890:	4b15      	ldr	r3, [pc, #84]	; (80028e8 <main+0xb0>)
  TIM_MasterConfigTypeDef sMasterConfig = {0};
 8002892:	9401      	str	r4, [sp, #4]
  htim4.Init.Prescaler = 0;
 8002894:	e885 0018 	stmia.w	r5, {r3, r4}
  htim4.Init.Period = 0xFFFF;
 8002898:	f64f 73ff 	movw	r3, #65535	; 0xffff
 800289c:	60eb      	str	r3, [r5, #12]
  sConfig.EncoderMode = TIM_ENCODERMODE_TI12;
 800289e:	2303      	movs	r3, #3
 80028a0:	9303      	str	r3, [sp, #12]
  if (HAL_TIM_Encoder_Init(&htim4, &sConfig) != HAL_OK)
 80028a2:	a903      	add	r1, sp, #12
  sConfig.IC1Filter = 2;
 80028a4:	2302      	movs	r3, #2
  if (HAL_TIM_Encoder_Init(&htim4, &sConfig) != HAL_OK)
 80028a6:	4628      	mov	r0, r5
  sConfig.IC1Filter = 2;
 80028a8:	9307      	str	r3, [sp, #28]
  sConfig.IC2Filter = 2;
 80028aa:	930b      	str	r3, [sp, #44]	; 0x2c
  TIM_MasterConfigTypeDef sMasterConfig = {0};
 80028ac:	9402      	str	r4, [sp, #8]
  htim4.Init.CounterMode = TIM_COUNTERMODE_UP;
 80028ae:	60ac      	str	r4, [r5, #8]
  htim4.Init.ClockDivision = TIM_CLOCKDIVISION_DIV1;
 80028b0:	612c      	str	r4, [r5, #16]
  htim4.Init.AutoReloadPreload = TIM_AUTORELOAD_PRELOAD_DISABLE;
 80028b2:	61ac      	str	r4, [r5, #24]
  sConfig.IC1Selection = TIM_ICSELECTION_DIRECTTI;
 80028b4:	9605      	str	r6, [sp, #20]
  sConfig.IC2Selection = TIM_ICSELECTION_DIRECTTI;
 80028b6:	9609      	str	r6, [sp, #36]	; 0x24
  if (HAL_TIM_Encoder_Init(&htim4, &sConfig) != HAL_OK)
 80028b8:	f7fe fb68 	bl	8000f8c <HAL_TIM_Encoder_Init>
  if (HAL_TIMEx_MasterConfigSynchronization(&htim4, &sMasterConfig) != HAL_OK)
 80028bc:	a901      	add	r1, sp, #4
 80028be:	4628      	mov	r0, r5
  sMasterConfig.MasterOutputTrigger = TIM_TRGO_RESET;
 80028c0:	9401      	str	r4, [sp, #4]
  sMasterConfig.MasterSlaveMode = TIM_MASTERSLAVEMODE_DISABLE;
 80028c2:	9402      	str	r4, [sp, #8]
  if (HAL_TIMEx_MasterConfigSynchronization(&htim4, &sMasterConfig) != HAL_OK)
 80028c4:	f7fe fbae 	bl	8001024 <HAL_TIMEx_MasterConfigSynchronization>
  * @rmtoll STK_CTRL     TICKINT       LL_SYSTICK_EnableIT
  * @retval None
  */
__STATIC_INLINE void LL_SYSTICK_EnableIT(void)
{
  SET_BIT(SysTick->CTRL, SysTick_CTRL_TICKINT_Msk);
 80028c8:	4a08      	ldr	r2, [pc, #32]	; (80028ec <main+0xb4>)
 80028ca:	6813      	ldr	r3, [r2, #0]
 80028cc:	f043 0302 	orr.w	r3, r3, #2
 80028d0:	6013      	str	r3, [r2, #0]
	HAL_TIM_Encoder_Start(&htim4,TIM_CHANNEL_ALL);
 80028d2:	213c      	movs	r1, #60	; 0x3c
 80028d4:	4628      	mov	r0, r5
 80028d6:	f7fe fad1 	bl	8000e7c <HAL_TIM_Encoder_Start>
	  MainApp();
 80028da:	f7ff fef5 	bl	80026c8 <MainApp>
 80028de:	e7fc      	b.n	80028da <main+0xa2>
 80028e0:	40020400 	.word	0x40020400
 80028e4:	20000234 	.word	0x20000234
 80028e8:	40000800 	.word	0x40000800
 80028ec:	e000e010 	.word	0xe000e010

080028f0 <Error_Handler>:
/**
  * @brief  This function is executed in case of error occurrence.
  * @retval None
  */
void Error_Handler(void)
{
 80028f0:	4770      	bx	lr
	...

080028f4 <HAL_MspInit>:
/* USER CODE END 0 */
/**
  * Initializes the Global MSP.
  */
void HAL_MspInit(void)
{
 80028f4:	b082      	sub	sp, #8
  /* USER CODE BEGIN MspInit 0 */

  /* USER CODE END MspInit 0 */

  __HAL_RCC_SYSCFG_CLK_ENABLE();
 80028f6:	4b0c      	ldr	r3, [pc, #48]	; (8002928 <HAL_MspInit+0x34>)
 80028f8:	2100      	movs	r1, #0
 80028fa:	9100      	str	r1, [sp, #0]
 80028fc:	6c5a      	ldr	r2, [r3, #68]	; 0x44
 80028fe:	f442 4280 	orr.w	r2, r2, #16384	; 0x4000
 8002902:	645a      	str	r2, [r3, #68]	; 0x44
 8002904:	6c5a      	ldr	r2, [r3, #68]	; 0x44
 8002906:	f402 4280 	and.w	r2, r2, #16384	; 0x4000
 800290a:	9200      	str	r2, [sp, #0]
 800290c:	9a00      	ldr	r2, [sp, #0]
  __HAL_RCC_PWR_CLK_ENABLE();
 800290e:	9101      	str	r1, [sp, #4]
 8002910:	6c1a      	ldr	r2, [r3, #64]	; 0x40
 8002912:	f042 5280 	orr.w	r2, r2, #268435456	; 0x10000000
 8002916:	641a      	str	r2, [r3, #64]	; 0x40
 8002918:	6c1b      	ldr	r3, [r3, #64]	; 0x40
 800291a:	f003 5380 	and.w	r3, r3, #268435456	; 0x10000000
 800291e:	9301      	str	r3, [sp, #4]
 8002920:	9b01      	ldr	r3, [sp, #4]
  /* System interrupt init*/

  /* USER CODE BEGIN MspInit 1 */

  /* USER CODE END MspInit 1 */
}
 8002922:	b002      	add	sp, #8
 8002924:	4770      	bx	lr
 8002926:	bf00      	nop
 8002928:	40023800 	.word	0x40023800

0800292c <HAL_TIM_Encoder_MspInit>:
* This function configures the hardware resources used in this example
* @param htim_encoder: TIM_Encoder handle pointer
* @retval None
*/
void HAL_TIM_Encoder_MspInit(TIM_HandleTypeDef* htim_encoder)
{
 800292c:	b510      	push	{r4, lr}
 800292e:	4604      	mov	r4, r0
 8002930:	b088      	sub	sp, #32
  GPIO_InitTypeDef GPIO_InitStruct = {0};
 8002932:	2214      	movs	r2, #20
 8002934:	2100      	movs	r1, #0
 8002936:	a803      	add	r0, sp, #12
 8002938:	f000 fb26 	bl	8002f88 <memset>
  if(htim_encoder->Instance==TIM4)
 800293c:	6822      	ldr	r2, [r4, #0]
 800293e:	4b13      	ldr	r3, [pc, #76]	; (800298c <HAL_TIM_Encoder_MspInit+0x60>)
 8002940:	429a      	cmp	r2, r3
 8002942:	d121      	bne.n	8002988 <HAL_TIM_Encoder_MspInit+0x5c>
  {
  /* USER CODE BEGIN TIM4_MspInit 0 */

  /* USER CODE END TIM4_MspInit 0 */
    /* Peripheral clock enable */
    __HAL_RCC_TIM4_CLK_ENABLE();
 8002944:	f503 330c 	add.w	r3, r3, #143360	; 0x23000
 8002948:	2100      	movs	r1, #0
 800294a:	9101      	str	r1, [sp, #4]
 800294c:	6c1a      	ldr	r2, [r3, #64]	; 0x40
    GPIO_InitStruct.Pin = GPIO_PIN_6|GPIO_PIN_7;
    GPIO_InitStruct.Mode = GPIO_MODE_AF_PP;
    GPIO_InitStruct.Pull = GPIO_PULLUP;
    GPIO_InitStruct.Speed = GPIO_SPEED_FREQ_LOW;
    GPIO_InitStruct.Alternate = GPIO_AF2_TIM4;
    HAL_GPIO_Init(GPIOB, &GPIO_InitStruct);
 800294e:	4810      	ldr	r0, [pc, #64]	; (8002990 <HAL_TIM_Encoder_MspInit+0x64>)
    __HAL_RCC_TIM4_CLK_ENABLE();
 8002950:	f042 0204 	orr.w	r2, r2, #4
 8002954:	641a      	str	r2, [r3, #64]	; 0x40
 8002956:	6c1a      	ldr	r2, [r3, #64]	; 0x40
 8002958:	f002 0204 	and.w	r2, r2, #4
 800295c:	9201      	str	r2, [sp, #4]
 800295e:	9a01      	ldr	r2, [sp, #4]
    __HAL_RCC_GPIOB_CLK_ENABLE();
 8002960:	9102      	str	r1, [sp, #8]
 8002962:	6b1a      	ldr	r2, [r3, #48]	; 0x30
 8002964:	f042 0202 	orr.w	r2, r2, #2
 8002968:	631a      	str	r2, [r3, #48]	; 0x30
 800296a:	6b1b      	ldr	r3, [r3, #48]	; 0x30
 800296c:	f003 0302 	and.w	r3, r3, #2
 8002970:	9302      	str	r3, [sp, #8]
 8002972:	9b02      	ldr	r3, [sp, #8]
    GPIO_InitStruct.Pin = GPIO_PIN_6|GPIO_PIN_7;
 8002974:	23c0      	movs	r3, #192	; 0xc0
 8002976:	9303      	str	r3, [sp, #12]
    GPIO_InitStruct.Pull = GPIO_PULLUP;
 8002978:	2201      	movs	r2, #1
    GPIO_InitStruct.Mode = GPIO_MODE_AF_PP;
 800297a:	2302      	movs	r3, #2
    HAL_GPIO_Init(GPIOB, &GPIO_InitStruct);
 800297c:	a903      	add	r1, sp, #12
    GPIO_InitStruct.Mode = GPIO_MODE_AF_PP;
 800297e:	9304      	str	r3, [sp, #16]
    GPIO_InitStruct.Pull = GPIO_PULLUP;
 8002980:	9205      	str	r2, [sp, #20]
    GPIO_InitStruct.Alternate = GPIO_AF2_TIM4;
 8002982:	9307      	str	r3, [sp, #28]
    HAL_GPIO_Init(GPIOB, &GPIO_InitStruct);
 8002984:	f7fd fcf6 	bl	8000374 <HAL_GPIO_Init>
  /* USER CODE BEGIN TIM4_MspInit 1 */

  /* USER CODE END TIM4_MspInit 1 */
  }

}
 8002988:	b008      	add	sp, #32
 800298a:	bd10      	pop	{r4, pc}
 800298c:	40000800 	.word	0x40000800
 8002990:	40020400 	.word	0x40020400

08002994 <NMI_Handler>:
 8002994:	4770      	bx	lr

08002996 <HardFault_Handler>:

/**
  * @brief This function handles Hard fault interrupt.
  */
void HardFault_Handler(void)
{
 8002996:	e7fe      	b.n	8002996 <HardFault_Handler>

08002998 <MemManage_Handler>:

/**
  * @brief This function handles Memory management fault.
  */
void MemManage_Handler(void)
{
 8002998:	e7fe      	b.n	8002998 <MemManage_Handler>

0800299a <BusFault_Handler>:

/**
  * @brief This function handles Pre-fetch fault, memory access fault.
  */
void BusFault_Handler(void)
{
 800299a:	e7fe      	b.n	800299a <BusFault_Handler>

0800299c <UsageFault_Handler>:

/**
  * @brief This function handles Undefined instruction or illegal state.
  */
void UsageFault_Handler(void)
{
 800299c:	e7fe      	b.n	800299c <UsageFault_Handler>

0800299e <SVC_Handler>:
 800299e:	4770      	bx	lr

080029a0 <DebugMon_Handler>:
 80029a0:	4770      	bx	lr

080029a2 <PendSV_Handler>:

/**
  * @brief This function handles Pendable request for system service.
  */
void PendSV_Handler(void)
{
 80029a2:	4770      	bx	lr

080029a4 <SysTick_Handler>:
  * @brief This function handles System tick timer.
  */
void SysTick_Handler(void)
{
  /* USER CODE BEGIN SysTick_IRQn 0 */
	++ticker;
 80029a4:	4a03      	ldr	r2, [pc, #12]	; (80029b4 <SysTick_Handler+0x10>)
 80029a6:	8813      	ldrh	r3, [r2, #0]
 80029a8:	3301      	adds	r3, #1
 80029aa:	b29b      	uxth	r3, r3
 80029ac:	8013      	strh	r3, [r2, #0]
  /* USER CODE END SysTick_IRQn 0 */
  HAL_IncTick();
 80029ae:	f7fd bc51 	b.w	8000254 <HAL_IncTick>
 80029b2:	bf00      	nop
 80029b4:	20000224 	.word	0x20000224

080029b8 <OTG_FS_IRQHandler>:
void OTG_FS_IRQHandler(void)
{
  /* USER CODE BEGIN OTG_FS_IRQn 0 */

  /* USER CODE END OTG_FS_IRQn 0 */
  HAL_PCD_IRQHandler(&hpcd_USB_OTG_FS);
 80029b8:	4801      	ldr	r0, [pc, #4]	; (80029c0 <OTG_FS_IRQHandler+0x8>)
 80029ba:	f7fd be61 	b.w	8000680 <HAL_PCD_IRQHandler>
 80029be:	bf00      	nop
 80029c0:	20001544 	.word	0x20001544

080029c4 <_sbrk>:
	}
	return len;
}

caddr_t _sbrk(int incr)
{
 80029c4:	b508      	push	{r3, lr}
	extern char end asm("end");
	static char *heap_end;
	char *prev_heap_end;

	if (heap_end == 0)
 80029c6:	4b0a      	ldr	r3, [pc, #40]	; (80029f0 <_sbrk+0x2c>)
 80029c8:	6819      	ldr	r1, [r3, #0]
{
 80029ca:	4602      	mov	r2, r0
	if (heap_end == 0)
 80029cc:	b909      	cbnz	r1, 80029d2 <_sbrk+0xe>
		heap_end = &end;
 80029ce:	4909      	ldr	r1, [pc, #36]	; (80029f4 <_sbrk+0x30>)
 80029d0:	6019      	str	r1, [r3, #0]

	prev_heap_end = heap_end;
 80029d2:	6818      	ldr	r0, [r3, #0]
	if (heap_end + incr > stack_ptr)
 80029d4:	4669      	mov	r1, sp
 80029d6:	4402      	add	r2, r0
 80029d8:	428a      	cmp	r2, r1
 80029da:	d906      	bls.n	80029ea <_sbrk+0x26>
	{
//		write(1, "Heap and stack collision\n", 25);
//		abort();
		errno = ENOMEM;
 80029dc:	f000 fa80 	bl	8002ee0 <__errno>
 80029e0:	230c      	movs	r3, #12
 80029e2:	6003      	str	r3, [r0, #0]
		return (caddr_t) -1;
 80029e4:	f04f 30ff 	mov.w	r0, #4294967295
 80029e8:	bd08      	pop	{r3, pc}
	}

	heap_end += incr;
 80029ea:	601a      	str	r2, [r3, #0]

	return (caddr_t) prev_heap_end;
}
 80029ec:	bd08      	pop	{r3, pc}
 80029ee:	bf00      	nop
 80029f0:	20000214 	.word	0x20000214
 80029f4:	20001b50 	.word	0x20001b50

080029f8 <SystemInit>:
  */
void SystemInit(void)
{
  /* FPU settings ------------------------------------------------------------*/
  #if (__FPU_PRESENT == 1) && (__FPU_USED == 1)
    SCB->CPACR |= ((3UL << 10*2)|(3UL << 11*2));  /* set CP10 and CP11 Full Access */
 80029f8:	4b05      	ldr	r3, [pc, #20]	; (8002a10 <SystemInit+0x18>)
 80029fa:	f8d3 2088 	ldr.w	r2, [r3, #136]	; 0x88
 80029fe:	f442 0270 	orr.w	r2, r2, #15728640	; 0xf00000
 8002a02:	f8c3 2088 	str.w	r2, [r3, #136]	; 0x88

  /* Configure the Vector Table location add offset address ------------------*/
#ifdef VECT_TAB_SRAM
  SCB->VTOR = SRAM_BASE | VECT_TAB_OFFSET; /* Vector Table Relocation in Internal SRAM */
#else
  SCB->VTOR = FLASH_BASE | VECT_TAB_OFFSET; /* Vector Table Relocation in Internal FLASH */
 8002a06:	f04f 6200 	mov.w	r2, #134217728	; 0x8000000
 8002a0a:	609a      	str	r2, [r3, #8]
 8002a0c:	4770      	bx	lr
 8002a0e:	bf00      	nop
 8002a10:	e000ed00 	.word	0xe000ed00

08002a14 <MX_USB_DEVICE_Init>:
/**
  * Init USB device Library, add supported class and start the library
  * @retval None
  */
void MX_USB_DEVICE_Init(void)
{
 8002a14:	b508      	push	{r3, lr}
  /* USER CODE BEGIN USB_DEVICE_Init_PreTreatment */
  
  /* USER CODE END USB_DEVICE_Init_PreTreatment */
  
  /* Init Device Library, add supported class and start the library. */
  if (USBD_Init(&hUsbDeviceFS, &FS_Desc, DEVICE_FS) != USBD_OK)
 8002a16:	2200      	movs	r2, #0
 8002a18:	490e      	ldr	r1, [pc, #56]	; (8002a54 <MX_USB_DEVICE_Init+0x40>)
 8002a1a:	480f      	ldr	r0, [pc, #60]	; (8002a58 <MX_USB_DEVICE_Init+0x44>)
 8002a1c:	f7ff fa89 	bl	8001f32 <USBD_Init>
 8002a20:	b108      	cbz	r0, 8002a26 <MX_USB_DEVICE_Init+0x12>
  {
    Error_Handler();
 8002a22:	f7ff ff65 	bl	80028f0 <Error_Handler>
  }
  if (USBD_RegisterClass(&hUsbDeviceFS, &USBD_CDC) != USBD_OK)
 8002a26:	490d      	ldr	r1, [pc, #52]	; (8002a5c <MX_USB_DEVICE_Init+0x48>)
 8002a28:	480b      	ldr	r0, [pc, #44]	; (8002a58 <MX_USB_DEVICE_Init+0x44>)
 8002a2a:	f7ff fa9a 	bl	8001f62 <USBD_RegisterClass>
 8002a2e:	b108      	cbz	r0, 8002a34 <MX_USB_DEVICE_Init+0x20>
  {
    Error_Handler();
 8002a30:	f7ff ff5e 	bl	80028f0 <Error_Handler>
  }
  if (USBD_CDC_RegisterInterface(&hUsbDeviceFS, &USBD_Interface_fops_FS) != USBD_OK)
 8002a34:	490a      	ldr	r1, [pc, #40]	; (8002a60 <MX_USB_DEVICE_Init+0x4c>)
 8002a36:	4808      	ldr	r0, [pc, #32]	; (8002a58 <MX_USB_DEVICE_Init+0x44>)
 8002a38:	f7ff fa3b 	bl	8001eb2 <USBD_CDC_RegisterInterface>
 8002a3c:	b108      	cbz	r0, 8002a42 <MX_USB_DEVICE_Init+0x2e>
  {
    Error_Handler();
 8002a3e:	f7ff ff57 	bl	80028f0 <Error_Handler>
  }
  if (USBD_Start(&hUsbDeviceFS) != USBD_OK)
 8002a42:	4805      	ldr	r0, [pc, #20]	; (8002a58 <MX_USB_DEVICE_Init+0x44>)
 8002a44:	f7ff faa0 	bl	8001f88 <USBD_Start>
 8002a48:	b118      	cbz	r0, 8002a52 <MX_USB_DEVICE_Init+0x3e>
  }

  /* USER CODE BEGIN USB_DEVICE_Init_PostTreatment */
  
  /* USER CODE END USB_DEVICE_Init_PostTreatment */
}
 8002a4a:	e8bd 4008 	ldmia.w	sp!, {r3, lr}
    Error_Handler();
 8002a4e:	f7ff bf4f 	b.w	80028f0 <Error_Handler>
 8002a52:	bd08      	pop	{r3, pc}
 8002a54:	20000138 	.word	0x20000138
 8002a58:	20000274 	.word	0x20000274
 8002a5c:	20000008 	.word	0x20000008
 8002a60:	20000124 	.word	0x20000124

08002a64 <CDC_DeInit_FS>:
static int8_t CDC_DeInit_FS(void)
{
  /* USER CODE BEGIN 4 */
  return (USBD_OK);
  /* USER CODE END 4 */
}
 8002a64:	2000      	movs	r0, #0
 8002a66:	4770      	bx	lr

08002a68 <CDC_TransmitCplt_FS>:
  UNUSED(Buf);
  UNUSED(Len);
  UNUSED(epnum);
  /* USER CODE END 13 */
  return result;
}
 8002a68:	2000      	movs	r0, #0
 8002a6a:	4770      	bx	lr

08002a6c <CDC_Receive_FS>:
{
 8002a6c:	b510      	push	{r4, lr}
  USBD_CDC_SetRxBuffer(&hUsbDeviceFS, &Buf[0]);
 8002a6e:	4c05      	ldr	r4, [pc, #20]	; (8002a84 <CDC_Receive_FS+0x18>)
 8002a70:	4601      	mov	r1, r0
 8002a72:	4620      	mov	r0, r4
 8002a74:	f7ff fa2c 	bl	8001ed0 <USBD_CDC_SetRxBuffer>
  USBD_CDC_ReceivePacket(&hUsbDeviceFS);
 8002a78:	4620      	mov	r0, r4
 8002a7a:	f7ff fa47 	bl	8001f0c <USBD_CDC_ReceivePacket>
}
 8002a7e:	2000      	movs	r0, #0
 8002a80:	bd10      	pop	{r4, pc}
 8002a82:	bf00      	nop
 8002a84:	20000274 	.word	0x20000274

08002a88 <CDC_Init_FS>:
{
 8002a88:	b510      	push	{r4, lr}
  USBD_CDC_SetTxBuffer(&hUsbDeviceFS, UserTxBufferFS, 0);
 8002a8a:	4c06      	ldr	r4, [pc, #24]	; (8002aa4 <CDC_Init_FS+0x1c>)
 8002a8c:	4906      	ldr	r1, [pc, #24]	; (8002aa8 <CDC_Init_FS+0x20>)
 8002a8e:	2200      	movs	r2, #0
 8002a90:	4620      	mov	r0, r4
 8002a92:	f7ff fa15 	bl	8001ec0 <USBD_CDC_SetTxBuffer>
  USBD_CDC_SetRxBuffer(&hUsbDeviceFS, UserRxBufferFS);
 8002a96:	4905      	ldr	r1, [pc, #20]	; (8002aac <CDC_Init_FS+0x24>)
 8002a98:	4620      	mov	r0, r4
 8002a9a:	f7ff fa19 	bl	8001ed0 <USBD_CDC_SetRxBuffer>
}
 8002a9e:	2000      	movs	r0, #0
 8002aa0:	bd10      	pop	{r4, pc}
 8002aa2:	bf00      	nop
 8002aa4:	20000274 	.word	0x20000274
 8002aa8:	20000d44 	.word	0x20000d44
 8002aac:	20000544 	.word	0x20000544

08002ab0 <CDC_Control_FS>:
  switch(cmd)
 8002ab0:	2821      	cmp	r0, #33	; 0x21
 8002ab2:	d107      	bne.n	8002ac4 <CDC_Control_FS+0x14>
    	pbuf[0] = tempbuf[0];
 8002ab4:	2300      	movs	r3, #0
 8002ab6:	700b      	strb	r3, [r1, #0]
		pbuf[1] = tempbuf[1];
 8002ab8:	704b      	strb	r3, [r1, #1]
		pbuf[2] = tempbuf[2];
 8002aba:	708b      	strb	r3, [r1, #2]
		pbuf[3] = tempbuf[3];
 8002abc:	70cb      	strb	r3, [r1, #3]
		pbuf[4] = tempbuf[4];
 8002abe:	710b      	strb	r3, [r1, #4]
		pbuf[5] = tempbuf[5];
 8002ac0:	714b      	strb	r3, [r1, #5]
		pbuf[6] = tempbuf[6];
 8002ac2:	718b      	strb	r3, [r1, #6]
}
 8002ac4:	2000      	movs	r0, #0
 8002ac6:	4770      	bx	lr

08002ac8 <CDC_Transmit_FS>:
{
 8002ac8:	b510      	push	{r4, lr}
  USBD_CDC_HandleTypeDef *hcdc = (USBD_CDC_HandleTypeDef*)hUsbDeviceFS.pClassData;
 8002aca:	4c09      	ldr	r4, [pc, #36]	; (8002af0 <CDC_Transmit_FS+0x28>)
 8002acc:	f8d4 32bc 	ldr.w	r3, [r4, #700]	; 0x2bc
  if (hcdc->TxState != 0){
 8002ad0:	f8d3 3214 	ldr.w	r3, [r3, #532]	; 0x214
{
 8002ad4:	460a      	mov	r2, r1
  if (hcdc->TxState != 0){
 8002ad6:	b943      	cbnz	r3, 8002aea <CDC_Transmit_FS+0x22>
  USBD_CDC_SetTxBuffer(&hUsbDeviceFS, Buf, Len);
 8002ad8:	4601      	mov	r1, r0
 8002ada:	4620      	mov	r0, r4
 8002adc:	f7ff f9f0 	bl	8001ec0 <USBD_CDC_SetTxBuffer>
  result = USBD_CDC_TransmitPacket(&hUsbDeviceFS);
 8002ae0:	4620      	mov	r0, r4
}
 8002ae2:	e8bd 4010 	ldmia.w	sp!, {r4, lr}
  result = USBD_CDC_TransmitPacket(&hUsbDeviceFS);
 8002ae6:	f7ff b9f9 	b.w	8001edc <USBD_CDC_TransmitPacket>
}
 8002aea:	2001      	movs	r0, #1
 8002aec:	bd10      	pop	{r4, pc}
 8002aee:	bf00      	nop
 8002af0:	20000274 	.word	0x20000274

08002af4 <HAL_PCD_MspInit>:
                       LL Driver Callbacks (PCD -> USB Device Library)
*******************************************************************************/
/* MSP Init */

void HAL_PCD_MspInit(PCD_HandleTypeDef* pcdHandle)
{
 8002af4:	b530      	push	{r4, r5, lr}
 8002af6:	4604      	mov	r4, r0
 8002af8:	b089      	sub	sp, #36	; 0x24
  GPIO_InitTypeDef GPIO_InitStruct = {0};
 8002afa:	2214      	movs	r2, #20
 8002afc:	2100      	movs	r1, #0
 8002afe:	a803      	add	r0, sp, #12
 8002b00:	f000 fa42 	bl	8002f88 <memset>
  if(pcdHandle->Instance==USB_OTG_FS)
 8002b04:	6823      	ldr	r3, [r4, #0]
 8002b06:	f1b3 4fa0 	cmp.w	r3, #1342177280	; 0x50000000
 8002b0a:	d12e      	bne.n	8002b6a <HAL_PCD_MspInit+0x76>
  {
  /* USER CODE BEGIN USB_OTG_FS_MspInit 0 */

  /* USER CODE END USB_OTG_FS_MspInit 0 */
  
    __HAL_RCC_GPIOA_CLK_ENABLE();
 8002b0c:	4c18      	ldr	r4, [pc, #96]	; (8002b70 <HAL_PCD_MspInit+0x7c>)
    GPIO_InitStruct.Pin = GPIO_PIN_11|GPIO_PIN_12;
    GPIO_InitStruct.Mode = GPIO_MODE_AF_PP;
    GPIO_InitStruct.Pull = GPIO_NOPULL;
    GPIO_InitStruct.Speed = GPIO_SPEED_FREQ_VERY_HIGH;
    GPIO_InitStruct.Alternate = GPIO_AF10_OTG_FS;
    HAL_GPIO_Init(GPIOA, &GPIO_InitStruct);
 8002b0e:	4819      	ldr	r0, [pc, #100]	; (8002b74 <HAL_PCD_MspInit+0x80>)
    __HAL_RCC_GPIOA_CLK_ENABLE();
 8002b10:	2500      	movs	r5, #0
 8002b12:	9501      	str	r5, [sp, #4]
 8002b14:	6b23      	ldr	r3, [r4, #48]	; 0x30
 8002b16:	f043 0301 	orr.w	r3, r3, #1
 8002b1a:	6323      	str	r3, [r4, #48]	; 0x30
 8002b1c:	6b23      	ldr	r3, [r4, #48]	; 0x30
 8002b1e:	f003 0301 	and.w	r3, r3, #1
 8002b22:	9301      	str	r3, [sp, #4]
 8002b24:	9b01      	ldr	r3, [sp, #4]
    GPIO_InitStruct.Pin = GPIO_PIN_11|GPIO_PIN_12;
 8002b26:	f44f 53c0 	mov.w	r3, #6144	; 0x1800
 8002b2a:	9303      	str	r3, [sp, #12]
    GPIO_InitStruct.Mode = GPIO_MODE_AF_PP;
 8002b2c:	2302      	movs	r3, #2
 8002b2e:	9304      	str	r3, [sp, #16]
    GPIO_InitStruct.Speed = GPIO_SPEED_FREQ_VERY_HIGH;
 8002b30:	2303      	movs	r3, #3
 8002b32:	9306      	str	r3, [sp, #24]
    HAL_GPIO_Init(GPIOA, &GPIO_InitStruct);
 8002b34:	a903      	add	r1, sp, #12
    GPIO_InitStruct.Alternate = GPIO_AF10_OTG_FS;
 8002b36:	230a      	movs	r3, #10
 8002b38:	9307      	str	r3, [sp, #28]
    HAL_GPIO_Init(GPIOA, &GPIO_InitStruct);
 8002b3a:	f7fd fc1b 	bl	8000374 <HAL_GPIO_Init>

    /* Peripheral clock enable */
    __HAL_RCC_USB_OTG_FS_CLK_ENABLE();
 8002b3e:	6b63      	ldr	r3, [r4, #52]	; 0x34
 8002b40:	f043 0380 	orr.w	r3, r3, #128	; 0x80
 8002b44:	6363      	str	r3, [r4, #52]	; 0x34
 8002b46:	9502      	str	r5, [sp, #8]
 8002b48:	6c63      	ldr	r3, [r4, #68]	; 0x44
 8002b4a:	f443 4380 	orr.w	r3, r3, #16384	; 0x4000
 8002b4e:	6463      	str	r3, [r4, #68]	; 0x44
 8002b50:	6c63      	ldr	r3, [r4, #68]	; 0x44
 8002b52:	f403 4380 	and.w	r3, r3, #16384	; 0x4000
 8002b56:	9302      	str	r3, [sp, #8]

    /* Peripheral interrupt init */
    HAL_NVIC_SetPriority(OTG_FS_IRQn, 0, 0);
 8002b58:	2043      	movs	r0, #67	; 0x43
 8002b5a:	462a      	mov	r2, r5
 8002b5c:	4629      	mov	r1, r5
    __HAL_RCC_USB_OTG_FS_CLK_ENABLE();
 8002b5e:	9b02      	ldr	r3, [sp, #8]
    HAL_NVIC_SetPriority(OTG_FS_IRQn, 0, 0);
 8002b60:	f7fd fbb0 	bl	80002c4 <HAL_NVIC_SetPriority>
    HAL_NVIC_EnableIRQ(OTG_FS_IRQn);
 8002b64:	2043      	movs	r0, #67	; 0x43
 8002b66:	f7fd fbe1 	bl	800032c <HAL_NVIC_EnableIRQ>
  /* USER CODE BEGIN USB_OTG_FS_MspInit 1 */

  /* USER CODE END USB_OTG_FS_MspInit 1 */
  }
}
 8002b6a:	b009      	add	sp, #36	; 0x24
 8002b6c:	bd30      	pop	{r4, r5, pc}
 8002b6e:	bf00      	nop
 8002b70:	40023800 	.word	0x40023800
 8002b74:	40020000 	.word	0x40020000

08002b78 <HAL_PCD_SetupStageCallback>:
static void PCD_SetupStageCallback(PCD_HandleTypeDef *hpcd)
#else
void HAL_PCD_SetupStageCallback(PCD_HandleTypeDef *hpcd)
#endif /* USE_HAL_PCD_REGISTER_CALLBACKS */
{
  USBD_LL_SetupStage((USBD_HandleTypeDef*)hpcd->pData, (uint8_t *)hpcd->Setup);
 8002b78:	f500 7171 	add.w	r1, r0, #964	; 0x3c4
 8002b7c:	f8d0 0404 	ldr.w	r0, [r0, #1028]	; 0x404
 8002b80:	f7ff ba13 	b.w	8001faa <USBD_LL_SetupStage>

08002b84 <HAL_PCD_DataOutStageCallback>:
static void PCD_DataOutStageCallback(PCD_HandleTypeDef *hpcd, uint8_t epnum)
#else
void HAL_PCD_DataOutStageCallback(PCD_HandleTypeDef *hpcd, uint8_t epnum)
#endif /* USE_HAL_PCD_REGISTER_CALLBACKS */
{
  USBD_LL_DataOutStage((USBD_HandleTypeDef*)hpcd->pData, epnum, hpcd->OUT_ep[epnum].xfer_buff);
 8002b84:	231c      	movs	r3, #28
 8002b86:	fb03 0301 	mla	r3, r3, r1, r0
 8002b8a:	f8d0 0404 	ldr.w	r0, [r0, #1028]	; 0x404
 8002b8e:	f8d3 2208 	ldr.w	r2, [r3, #520]	; 0x208
 8002b92:	f7ff ba3a 	b.w	800200a <USBD_LL_DataOutStage>

08002b96 <HAL_PCD_DataInStageCallback>:
static void PCD_DataInStageCallback(PCD_HandleTypeDef *hpcd, uint8_t epnum)
#else
void HAL_PCD_DataInStageCallback(PCD_HandleTypeDef *hpcd, uint8_t epnum)
#endif /* USE_HAL_PCD_REGISTER_CALLBACKS */
{
  USBD_LL_DataInStage((USBD_HandleTypeDef*)hpcd->pData, epnum, hpcd->IN_ep[epnum].xfer_buff);
 8002b96:	231c      	movs	r3, #28
 8002b98:	fb03 0301 	mla	r3, r3, r1, r0
 8002b9c:	f8d0 0404 	ldr.w	r0, [r0, #1028]	; 0x404
 8002ba0:	6c9a      	ldr	r2, [r3, #72]	; 0x48
 8002ba2:	f7ff ba65 	b.w	8002070 <USBD_LL_DataInStage>

08002ba6 <HAL_PCD_SOFCallback>:
static void PCD_SOFCallback(PCD_HandleTypeDef *hpcd)
#else
void HAL_PCD_SOFCallback(PCD_HandleTypeDef *hpcd)
#endif /* USE_HAL_PCD_REGISTER_CALLBACKS */
{
  USBD_LL_SOF((USBD_HandleTypeDef*)hpcd->pData);
 8002ba6:	f8d0 0404 	ldr.w	r0, [r0, #1028]	; 0x404
 8002baa:	f7ff baee 	b.w	800218a <USBD_LL_SOF>

08002bae <HAL_PCD_ResetCallback>:
void HAL_PCD_ResetCallback(PCD_HandleTypeDef *hpcd)
#endif /* USE_HAL_PCD_REGISTER_CALLBACKS */
{ 
  USBD_SpeedTypeDef speed = USBD_SPEED_FULL;

  if ( hpcd->Init.speed == PCD_SPEED_HIGH)
 8002bae:	68c1      	ldr	r1, [r0, #12]
{ 
 8002bb0:	b510      	push	{r4, lr}
 8002bb2:	4604      	mov	r4, r0
  if ( hpcd->Init.speed == PCD_SPEED_HIGH)
 8002bb4:	b121      	cbz	r1, 8002bc0 <HAL_PCD_ResetCallback+0x12>
  {
    speed = USBD_SPEED_HIGH;
  }
  else if ( hpcd->Init.speed == PCD_SPEED_FULL)
 8002bb6:	2902      	cmp	r1, #2
 8002bb8:	d001      	beq.n	8002bbe <HAL_PCD_ResetCallback+0x10>
  {
    speed = USBD_SPEED_FULL;
  }
  else
  {
    Error_Handler();
 8002bba:	f7ff fe99 	bl	80028f0 <Error_Handler>
    speed = USBD_SPEED_FULL;
 8002bbe:	2101      	movs	r1, #1
  }
    /* Set Speed. */
  USBD_LL_SetSpeed((USBD_HandleTypeDef*)hpcd->pData, speed);
 8002bc0:	f8d4 0404 	ldr.w	r0, [r4, #1028]	; 0x404
 8002bc4:	f7ff facb 	bl	800215e <USBD_LL_SetSpeed>

  /* Reset Device. */
  USBD_LL_Reset((USBD_HandleTypeDef*)hpcd->pData);
 8002bc8:	f8d4 0404 	ldr.w	r0, [r4, #1028]	; 0x404
}
 8002bcc:	e8bd 4010 	ldmia.w	sp!, {r4, lr}
  USBD_LL_Reset((USBD_HandleTypeDef*)hpcd->pData);
 8002bd0:	f7ff ba9d 	b.w	800210e <USBD_LL_Reset>

08002bd4 <HAL_PCD_SuspendCallback>:
#if (USE_HAL_PCD_REGISTER_CALLBACKS == 1U)
static void PCD_SuspendCallback(PCD_HandleTypeDef *hpcd)
#else
void HAL_PCD_SuspendCallback(PCD_HandleTypeDef *hpcd)
#endif /* USE_HAL_PCD_REGISTER_CALLBACKS */
{
 8002bd4:	b510      	push	{r4, lr}
 8002bd6:	4604      	mov	r4, r0
  /* Inform USB library that core enters in suspend Mode. */
  USBD_LL_Suspend((USBD_HandleTypeDef*)hpcd->pData);
 8002bd8:	f8d0 0404 	ldr.w	r0, [r0, #1028]	; 0x404
 8002bdc:	f7ff fac2 	bl	8002164 <USBD_LL_Suspend>
  __HAL_PCD_GATE_PHYCLOCK(hpcd);
 8002be0:	6822      	ldr	r2, [r4, #0]
 8002be2:	f8d2 3e00 	ldr.w	r3, [r2, #3584]	; 0xe00
 8002be6:	f043 0301 	orr.w	r3, r3, #1
 8002bea:	f8c2 3e00 	str.w	r3, [r2, #3584]	; 0xe00
  /* Enter in STOP mode. */
  /* USER CODE BEGIN 2 */
  if (hpcd->Init.low_power_enable)
 8002bee:	6a23      	ldr	r3, [r4, #32]
 8002bf0:	b123      	cbz	r3, 8002bfc <HAL_PCD_SuspendCallback+0x28>
  {
    /* Set SLEEPDEEP bit and SleepOnExit of Cortex System Control Register. */
    SCB->SCR |= (uint32_t)((uint32_t)(SCB_SCR_SLEEPDEEP_Msk | SCB_SCR_SLEEPONEXIT_Msk));
 8002bf2:	4a03      	ldr	r2, [pc, #12]	; (8002c00 <HAL_PCD_SuspendCallback+0x2c>)
 8002bf4:	6913      	ldr	r3, [r2, #16]
 8002bf6:	f043 0306 	orr.w	r3, r3, #6
 8002bfa:	6113      	str	r3, [r2, #16]
 8002bfc:	bd10      	pop	{r4, pc}
 8002bfe:	bf00      	nop
 8002c00:	e000ed00 	.word	0xe000ed00

08002c04 <HAL_PCD_ResumeCallback>:
#endif /* USE_HAL_PCD_REGISTER_CALLBACKS */
{
  /* USER CODE BEGIN 3 */

  /* USER CODE END 3 */
  USBD_LL_Resume((USBD_HandleTypeDef*)hpcd->pData);
 8002c04:	f8d0 0404 	ldr.w	r0, [r0, #1028]	; 0x404
 8002c08:	f7ff bab5 	b.w	8002176 <USBD_LL_Resume>

08002c0c <HAL_PCD_ISOOUTIncompleteCallback>:
static void PCD_ISOOUTIncompleteCallback(PCD_HandleTypeDef *hpcd, uint8_t epnum)
#else
void HAL_PCD_ISOOUTIncompleteCallback(PCD_HandleTypeDef *hpcd, uint8_t epnum)
#endif /* USE_HAL_PCD_REGISTER_CALLBACKS */
{
  USBD_LL_IsoOUTIncomplete((USBD_HandleTypeDef*)hpcd->pData, epnum);
 8002c0c:	f8d0 0404 	ldr.w	r0, [r0, #1028]	; 0x404
 8002c10:	f7ff bac9 	b.w	80021a6 <USBD_LL_IsoOUTIncomplete>

08002c14 <HAL_PCD_ISOINIncompleteCallback>:
static void PCD_ISOINIncompleteCallback(PCD_HandleTypeDef *hpcd, uint8_t epnum)
#else
void HAL_PCD_ISOINIncompleteCallback(PCD_HandleTypeDef *hpcd, uint8_t epnum)
#endif /* USE_HAL_PCD_REGISTER_CALLBACKS */
{
  USBD_LL_IsoINIncomplete((USBD_HandleTypeDef*)hpcd->pData, epnum);
 8002c14:	f8d0 0404 	ldr.w	r0, [r0, #1028]	; 0x404
 8002c18:	f7ff bac3 	b.w	80021a2 <USBD_LL_IsoINIncomplete>

08002c1c <HAL_PCD_ConnectCallback>:
static void PCD_ConnectCallback(PCD_HandleTypeDef *hpcd)
#else
void HAL_PCD_ConnectCallback(PCD_HandleTypeDef *hpcd)
#endif /* USE_HAL_PCD_REGISTER_CALLBACKS */
{
  USBD_LL_DevConnected((USBD_HandleTypeDef*)hpcd->pData);
 8002c1c:	f8d0 0404 	ldr.w	r0, [r0, #1028]	; 0x404
 8002c20:	f7ff bac3 	b.w	80021aa <USBD_LL_DevConnected>

08002c24 <HAL_PCD_DisconnectCallback>:
static void PCD_DisconnectCallback(PCD_HandleTypeDef *hpcd)
#else
void HAL_PCD_DisconnectCallback(PCD_HandleTypeDef *hpcd)
#endif /* USE_HAL_PCD_REGISTER_CALLBACKS */
{
  USBD_LL_DevDisconnected((USBD_HandleTypeDef*)hpcd->pData);
 8002c24:	f8d0 0404 	ldr.w	r0, [r0, #1028]	; 0x404
 8002c28:	f7ff bac1 	b.w	80021ae <USBD_LL_DevDisconnected>

08002c2c <USBD_LL_Init>:
  * @brief  Initializes the low level portion of the device driver.
  * @param  pdev: Device handle
  * @retval USBD status
  */
USBD_StatusTypeDef USBD_LL_Init(USBD_HandleTypeDef *pdev)
{
 8002c2c:	b508      	push	{r3, lr}
  /* Init USB Ip. */
  if (pdev->id == DEVICE_FS) {
 8002c2e:	7802      	ldrb	r2, [r0, #0]
 8002c30:	bb32      	cbnz	r2, 8002c80 <USBD_LL_Init+0x54>
  /* Link the driver to the stack. */
  hpcd_USB_OTG_FS.pData = pdev;
 8002c32:	4b14      	ldr	r3, [pc, #80]	; (8002c84 <USBD_LL_Init+0x58>)
  pdev->pData = &hpcd_USB_OTG_FS;
  
  hpcd_USB_OTG_FS.Instance = USB_OTG_FS;
  hpcd_USB_OTG_FS.Init.dev_endpoints = 4;
 8002c34:	2104      	movs	r1, #4
  hpcd_USB_OTG_FS.pData = pdev;
 8002c36:	f8c3 0404 	str.w	r0, [r3, #1028]	; 0x404
  pdev->pData = &hpcd_USB_OTG_FS;
 8002c3a:	f8c0 32c4 	str.w	r3, [r0, #708]	; 0x2c4
  hpcd_USB_OTG_FS.Init.dev_endpoints = 4;
 8002c3e:	f04f 40a0 	mov.w	r0, #1342177280	; 0x50000000
 8002c42:	e883 0003 	stmia.w	r3, {r0, r1}
  hpcd_USB_OTG_FS.Init.speed = PCD_SPEED_FULL;
 8002c46:	2102      	movs	r1, #2
  hpcd_USB_OTG_FS.Init.Sof_enable = DISABLE;
  hpcd_USB_OTG_FS.Init.low_power_enable = DISABLE;
  hpcd_USB_OTG_FS.Init.lpm_enable = DISABLE;
  hpcd_USB_OTG_FS.Init.vbus_sensing_enable = DISABLE;
  hpcd_USB_OTG_FS.Init.use_dedicated_ep1 = DISABLE;
  if (HAL_PCD_Init(&hpcd_USB_OTG_FS) != HAL_OK)
 8002c48:	4618      	mov	r0, r3
  hpcd_USB_OTG_FS.Init.speed = PCD_SPEED_FULL;
 8002c4a:	60d9      	str	r1, [r3, #12]
  hpcd_USB_OTG_FS.Init.dma_enable = DISABLE;
 8002c4c:	611a      	str	r2, [r3, #16]
  hpcd_USB_OTG_FS.Init.phy_itface = PCD_PHY_EMBEDDED;
 8002c4e:	6199      	str	r1, [r3, #24]
  hpcd_USB_OTG_FS.Init.Sof_enable = DISABLE;
 8002c50:	61da      	str	r2, [r3, #28]
  hpcd_USB_OTG_FS.Init.low_power_enable = DISABLE;
 8002c52:	621a      	str	r2, [r3, #32]
  hpcd_USB_OTG_FS.Init.lpm_enable = DISABLE;
 8002c54:	625a      	str	r2, [r3, #36]	; 0x24
  hpcd_USB_OTG_FS.Init.vbus_sensing_enable = DISABLE;
 8002c56:	62da      	str	r2, [r3, #44]	; 0x2c
  hpcd_USB_OTG_FS.Init.use_dedicated_ep1 = DISABLE;
 8002c58:	631a      	str	r2, [r3, #48]	; 0x30
  if (HAL_PCD_Init(&hpcd_USB_OTG_FS) != HAL_OK)
 8002c5a:	f7fd fc6b 	bl	8000534 <HAL_PCD_Init>
 8002c5e:	b108      	cbz	r0, 8002c64 <USBD_LL_Init+0x38>
  {
    Error_Handler( );
 8002c60:	f7ff fe46 	bl	80028f0 <Error_Handler>
  HAL_PCD_RegisterDataOutStageCallback(&hpcd_USB_OTG_FS, PCD_DataOutStageCallback);
  HAL_PCD_RegisterDataInStageCallback(&hpcd_USB_OTG_FS, PCD_DataInStageCallback);
  HAL_PCD_RegisterIsoOutIncpltCallback(&hpcd_USB_OTG_FS, PCD_ISOOUTIncompleteCallback);
  HAL_PCD_RegisterIsoInIncpltCallback(&hpcd_USB_OTG_FS, PCD_ISOINIncompleteCallback);
#endif /* USE_HAL_PCD_REGISTER_CALLBACKS */
  HAL_PCDEx_SetRxFiFo(&hpcd_USB_OTG_FS, 0x80);
 8002c64:	2180      	movs	r1, #128	; 0x80
 8002c66:	4807      	ldr	r0, [pc, #28]	; (8002c84 <USBD_LL_Init+0x58>)
 8002c68:	f7fe f8fc 	bl	8000e64 <HAL_PCDEx_SetRxFiFo>
  HAL_PCDEx_SetTxFiFo(&hpcd_USB_OTG_FS, 0, 0x40);
 8002c6c:	2240      	movs	r2, #64	; 0x40
 8002c6e:	2100      	movs	r1, #0
 8002c70:	4804      	ldr	r0, [pc, #16]	; (8002c84 <USBD_LL_Init+0x58>)
 8002c72:	f7fe f8d6 	bl	8000e22 <HAL_PCDEx_SetTxFiFo>
  HAL_PCDEx_SetTxFiFo(&hpcd_USB_OTG_FS, 1, 0x80);
 8002c76:	2280      	movs	r2, #128	; 0x80
 8002c78:	2101      	movs	r1, #1
 8002c7a:	4802      	ldr	r0, [pc, #8]	; (8002c84 <USBD_LL_Init+0x58>)
 8002c7c:	f7fe f8d1 	bl	8000e22 <HAL_PCDEx_SetTxFiFo>
  }
  return USBD_OK;
}
 8002c80:	2000      	movs	r0, #0
 8002c82:	bd08      	pop	{r3, pc}
 8002c84:	20001544 	.word	0x20001544

08002c88 <USBD_LL_Start>:
  * @brief  Starts the low level portion of the device driver. 
  * @param  pdev: Device handle
  * @retval USBD status
  */
USBD_StatusTypeDef USBD_LL_Start(USBD_HandleTypeDef *pdev)
{
 8002c88:	b508      	push	{r3, lr}
  HAL_StatusTypeDef hal_status = HAL_OK;
  USBD_StatusTypeDef usb_status = USBD_OK;
 
  hal_status = HAL_PCD_Start(pdev->pData);
 8002c8a:	f8d0 02c4 	ldr.w	r0, [r0, #708]	; 0x2c4
 8002c8e:	f7fd fcd8 	bl	8000642 <HAL_PCD_Start>
 8002c92:	2803      	cmp	r0, #3
 8002c94:	bf9a      	itte	ls
 8002c96:	4b02      	ldrls	r3, [pc, #8]	; (8002ca0 <USBD_LL_Start+0x18>)
 8002c98:	5c18      	ldrbls	r0, [r3, r0]
 8002c9a:	2003      	movhi	r0, #3
  
  usb_status =  USBD_Get_USB_Status(hal_status);     
  
  return usb_status;
}
 8002c9c:	bd08      	pop	{r3, pc}
 8002c9e:	bf00      	nop
 8002ca0:	080031ac 	.word	0x080031ac

08002ca4 <USBD_LL_OpenEP>:
  * @param  ep_type: Endpoint type
  * @param  ep_mps: Endpoint max packet size
  * @retval USBD status
  */
USBD_StatusTypeDef USBD_LL_OpenEP(USBD_HandleTypeDef *pdev, uint8_t ep_addr, uint8_t ep_type, uint16_t ep_mps)
{
 8002ca4:	b510      	push	{r4, lr}
 8002ca6:	461c      	mov	r4, r3
  HAL_StatusTypeDef hal_status = HAL_OK;
  USBD_StatusTypeDef usb_status = USBD_OK;

  hal_status = HAL_PCD_EP_Open(pdev->pData, ep_addr, ep_mps, ep_type);
 8002ca8:	f8d0 02c4 	ldr.w	r0, [r0, #708]	; 0x2c4
 8002cac:	4613      	mov	r3, r2
 8002cae:	4622      	mov	r2, r4
 8002cb0:	f7fd ffa0 	bl	8000bf4 <HAL_PCD_EP_Open>
 8002cb4:	2803      	cmp	r0, #3
 8002cb6:	bf9a      	itte	ls
 8002cb8:	4b01      	ldrls	r3, [pc, #4]	; (8002cc0 <USBD_LL_OpenEP+0x1c>)
 8002cba:	5c18      	ldrbls	r0, [r3, r0]
 8002cbc:	2003      	movhi	r0, #3

  usb_status =  USBD_Get_USB_Status(hal_status);
  
  return usb_status;
}
 8002cbe:	bd10      	pop	{r4, pc}
 8002cc0:	080031ac 	.word	0x080031ac

08002cc4 <USBD_LL_CloseEP>:
  * @param  pdev: Device handle
  * @param  ep_addr: Endpoint number
  * @retval USBD status
  */
USBD_StatusTypeDef USBD_LL_CloseEP(USBD_HandleTypeDef *pdev, uint8_t ep_addr)
{
 8002cc4:	b508      	push	{r3, lr}
  HAL_StatusTypeDef hal_status = HAL_OK;
  USBD_StatusTypeDef usb_status = USBD_OK;
  
  hal_status = HAL_PCD_EP_Close(pdev->pData, ep_addr);
 8002cc6:	f8d0 02c4 	ldr.w	r0, [r0, #708]	; 0x2c4
 8002cca:	f7fd ffc8 	bl	8000c5e <HAL_PCD_EP_Close>
 8002cce:	2803      	cmp	r0, #3
 8002cd0:	bf9a      	itte	ls
 8002cd2:	4b02      	ldrls	r3, [pc, #8]	; (8002cdc <USBD_LL_CloseEP+0x18>)
 8002cd4:	5c18      	ldrbls	r0, [r3, r0]
 8002cd6:	2003      	movhi	r0, #3
  
  usb_status =  USBD_Get_USB_Status(hal_status);    
 
  return usb_status;  
}
 8002cd8:	bd08      	pop	{r3, pc}
 8002cda:	bf00      	nop
 8002cdc:	080031ac 	.word	0x080031ac

08002ce0 <USBD_LL_StallEP>:
  * @param  pdev: Device handle
  * @param  ep_addr: Endpoint number
  * @retval USBD status
  */
USBD_StatusTypeDef USBD_LL_StallEP(USBD_HandleTypeDef *pdev, uint8_t ep_addr)
{
 8002ce0:	b508      	push	{r3, lr}
  HAL_StatusTypeDef hal_status = HAL_OK;
  USBD_StatusTypeDef usb_status = USBD_OK;
  
  hal_status = HAL_PCD_EP_SetStall(pdev->pData, ep_addr);
 8002ce2:	f8d0 02c4 	ldr.w	r0, [r0, #708]	; 0x2c4
 8002ce6:	f7fe f830 	bl	8000d4a <HAL_PCD_EP_SetStall>
 8002cea:	2803      	cmp	r0, #3
 8002cec:	bf9a      	itte	ls
 8002cee:	4b02      	ldrls	r3, [pc, #8]	; (8002cf8 <USBD_LL_StallEP+0x18>)
 8002cf0:	5c18      	ldrbls	r0, [r3, r0]
 8002cf2:	2003      	movhi	r0, #3

  usb_status =  USBD_Get_USB_Status(hal_status);
  
  return usb_status;  
}
 8002cf4:	bd08      	pop	{r3, pc}
 8002cf6:	bf00      	nop
 8002cf8:	080031ac 	.word	0x080031ac

08002cfc <USBD_LL_ClearStallEP>:
  * @param  pdev: Device handle
  * @param  ep_addr: Endpoint number
  * @retval USBD status
  */
USBD_StatusTypeDef USBD_LL_ClearStallEP(USBD_HandleTypeDef *pdev, uint8_t ep_addr)
{
 8002cfc:	b508      	push	{r3, lr}
  HAL_StatusTypeDef hal_status = HAL_OK;
  USBD_StatusTypeDef usb_status = USBD_OK;
  
  hal_status = HAL_PCD_EP_ClrStall(pdev->pData, ep_addr);
 8002cfe:	f8d0 02c4 	ldr.w	r0, [r0, #708]	; 0x2c4
 8002d02:	f7fe f85c 	bl	8000dbe <HAL_PCD_EP_ClrStall>
 8002d06:	2803      	cmp	r0, #3
 8002d08:	bf9a      	itte	ls
 8002d0a:	4b02      	ldrls	r3, [pc, #8]	; (8002d14 <USBD_LL_ClearStallEP+0x18>)
 8002d0c:	5c18      	ldrbls	r0, [r3, r0]
 8002d0e:	2003      	movhi	r0, #3
    
  usb_status =  USBD_Get_USB_Status(hal_status);  
  
  return usb_status; 
}
 8002d10:	bd08      	pop	{r3, pc}
 8002d12:	bf00      	nop
 8002d14:	080031ac 	.word	0x080031ac

08002d18 <USBD_LL_IsStallEP>:
  */
uint8_t USBD_LL_IsStallEP(USBD_HandleTypeDef *pdev, uint8_t ep_addr)
{
  PCD_HandleTypeDef *hpcd = (PCD_HandleTypeDef*) pdev->pData;
  
  if((ep_addr & 0x80) == 0x80)
 8002d18:	f011 0f80 	tst.w	r1, #128	; 0x80
  PCD_HandleTypeDef *hpcd = (PCD_HandleTypeDef*) pdev->pData;
 8002d1c:	f8d0 32c4 	ldr.w	r3, [r0, #708]	; 0x2c4
 8002d20:	f04f 021c 	mov.w	r2, #28
  {
    return hpcd->IN_ep[ep_addr & 0x7F].is_stall; 
 8002d24:	bf1b      	ittet	ne
 8002d26:	f001 017f 	andne.w	r1, r1, #127	; 0x7f
 8002d2a:	fb02 3101 	mlane	r1, r2, r1, r3
  }
  else
  {
    return hpcd->OUT_ep[ep_addr & 0x7F].is_stall; 
 8002d2e:	fb02 3101 	mlaeq	r1, r2, r1, r3
    return hpcd->IN_ep[ep_addr & 0x7F].is_stall; 
 8002d32:	f891 003e 	ldrbne.w	r0, [r1, #62]	; 0x3e
    return hpcd->OUT_ep[ep_addr & 0x7F].is_stall; 
 8002d36:	bf08      	it	eq
 8002d38:	f891 01fe 	ldrbeq.w	r0, [r1, #510]	; 0x1fe
  }
}
 8002d3c:	4770      	bx	lr
	...

08002d40 <USBD_LL_SetUSBAddress>:
  * @param  pdev: Device handle
  * @param  dev_addr: Device address
  * @retval USBD status
  */
USBD_StatusTypeDef USBD_LL_SetUSBAddress(USBD_HandleTypeDef *pdev, uint8_t dev_addr)
{
 8002d40:	b508      	push	{r3, lr}
  HAL_StatusTypeDef hal_status = HAL_OK;
  USBD_StatusTypeDef usb_status = USBD_OK;
  
  hal_status = HAL_PCD_SetAddress(pdev->pData, dev_addr);
 8002d42:	f8d0 02c4 	ldr.w	r0, [r0, #708]	; 0x2c4
 8002d46:	f7fd ff41 	bl	8000bcc <HAL_PCD_SetAddress>
 8002d4a:	2803      	cmp	r0, #3
 8002d4c:	bf9a      	itte	ls
 8002d4e:	4b02      	ldrls	r3, [pc, #8]	; (8002d58 <USBD_LL_SetUSBAddress+0x18>)
 8002d50:	5c18      	ldrbls	r0, [r3, r0]
 8002d52:	2003      	movhi	r0, #3
  
  usb_status =  USBD_Get_USB_Status(hal_status);
  
  return usb_status;  
}
 8002d54:	bd08      	pop	{r3, pc}
 8002d56:	bf00      	nop
 8002d58:	080031ac 	.word	0x080031ac

08002d5c <USBD_LL_Transmit>:
  * @param  pbuf: Pointer to data to be sent
  * @param  size: Data size    
  * @retval USBD status
  */
USBD_StatusTypeDef USBD_LL_Transmit(USBD_HandleTypeDef *pdev, uint8_t ep_addr, uint8_t *pbuf, uint32_t size)
{
 8002d5c:	b508      	push	{r3, lr}
  HAL_StatusTypeDef hal_status = HAL_OK;
  USBD_StatusTypeDef usb_status = USBD_OK;

  hal_status = HAL_PCD_EP_Transmit(pdev->pData, ep_addr, pbuf, size);
 8002d5e:	f8d0 02c4 	ldr.w	r0, [r0, #708]	; 0x2c4
 8002d62:	f7fd ffd2 	bl	8000d0a <HAL_PCD_EP_Transmit>
 8002d66:	2803      	cmp	r0, #3
 8002d68:	bf9a      	itte	ls
 8002d6a:	4b02      	ldrls	r3, [pc, #8]	; (8002d74 <USBD_LL_Transmit+0x18>)
 8002d6c:	5c18      	ldrbls	r0, [r3, r0]
 8002d6e:	2003      	movhi	r0, #3
  
  usb_status =  USBD_Get_USB_Status(hal_status); 
  
  return usb_status;    
}
 8002d70:	bd08      	pop	{r3, pc}
 8002d72:	bf00      	nop
 8002d74:	080031ac 	.word	0x080031ac

08002d78 <USBD_LL_PrepareReceive>:
  * @param  pbuf: Pointer to data to be received
  * @param  size: Data size
  * @retval USBD status
  */
USBD_StatusTypeDef USBD_LL_PrepareReceive(USBD_HandleTypeDef *pdev, uint8_t ep_addr, uint8_t *pbuf, uint32_t size)
{
 8002d78:	b508      	push	{r3, lr}
  HAL_StatusTypeDef hal_status = HAL_OK;
  USBD_StatusTypeDef usb_status = USBD_OK;

  hal_status = HAL_PCD_EP_Receive(pdev->pData, ep_addr, pbuf, size);
 8002d7a:	f8d0 02c4 	ldr.w	r0, [r0, #708]	; 0x2c4
 8002d7e:	f7fd ff98 	bl	8000cb2 <HAL_PCD_EP_Receive>
 8002d82:	2803      	cmp	r0, #3
 8002d84:	bf9a      	itte	ls
 8002d86:	4b02      	ldrls	r3, [pc, #8]	; (8002d90 <USBD_LL_PrepareReceive+0x18>)
 8002d88:	5c18      	ldrbls	r0, [r3, r0]
 8002d8a:	2003      	movhi	r0, #3
  
  usb_status =  USBD_Get_USB_Status(hal_status);   
  
  return usb_status; 
}
 8002d8c:	bd08      	pop	{r3, pc}
 8002d8e:	bf00      	nop
 8002d90:	080031ac 	.word	0x080031ac

08002d94 <USBD_LL_GetRxDataSize>:
  * @param  ep_addr: Endpoint number
  * @retval Recived Data Size
  */
uint32_t USBD_LL_GetRxDataSize(USBD_HandleTypeDef *pdev, uint8_t ep_addr)
{
  return HAL_PCD_EP_GetRxCount((PCD_HandleTypeDef*) pdev->pData, ep_addr);
 8002d94:	f8d0 02c4 	ldr.w	r0, [r0, #708]	; 0x2c4
 8002d98:	f7fd bfaf 	b.w	8000cfa <HAL_PCD_EP_GetRxCount>

08002d9c <USBD_FS_DeviceDescriptor>:
  * @retval Pointer to descriptor buffer
  */
uint8_t * USBD_FS_DeviceDescriptor(USBD_SpeedTypeDef speed, uint16_t *length)
{
  UNUSED(speed);
  *length = sizeof(USBD_FS_DeviceDesc);
 8002d9c:	2312      	movs	r3, #18
 8002d9e:	800b      	strh	r3, [r1, #0]
  return USBD_FS_DeviceDesc;
}
 8002da0:	4800      	ldr	r0, [pc, #0]	; (8002da4 <USBD_FS_DeviceDescriptor+0x8>)
 8002da2:	4770      	bx	lr
 8002da4:	20000154 	.word	0x20000154

08002da8 <USBD_FS_LangIDStrDescriptor>:
  * @retval Pointer to descriptor buffer
  */
uint8_t * USBD_FS_LangIDStrDescriptor(USBD_SpeedTypeDef speed, uint16_t *length)
{
  UNUSED(speed);
  *length = sizeof(USBD_LangIDDesc);
 8002da8:	2304      	movs	r3, #4
 8002daa:	800b      	strh	r3, [r1, #0]
  return USBD_LangIDDesc;
}
 8002dac:	4800      	ldr	r0, [pc, #0]	; (8002db0 <USBD_FS_LangIDStrDescriptor+0x8>)
 8002dae:	4770      	bx	lr
 8002db0:	20000168 	.word	0x20000168

08002db4 <IntToUnicode>:
  */
static void IntToUnicode(uint32_t value, uint8_t * pbuf, uint8_t len)
{
  uint8_t idx = 0;

  for (idx = 0; idx < len; idx++)
 8002db4:	2300      	movs	r3, #0
{
 8002db6:	b530      	push	{r4, r5, lr}
      pbuf[2 * idx] = (value >> 28) + 'A' - 10;
    }

    value = value << 4;

    pbuf[2 * idx + 1] = 0;
 8002db8:	461d      	mov	r5, r3
  for (idx = 0; idx < len; idx++)
 8002dba:	b2dc      	uxtb	r4, r3
 8002dbc:	42a2      	cmp	r2, r4
 8002dbe:	d800      	bhi.n	8002dc2 <IntToUnicode+0xe>
  }
}
 8002dc0:	bd30      	pop	{r4, r5, pc}
    if (((value >> 28)) < 0xA)
 8002dc2:	0f04      	lsrs	r4, r0, #28
 8002dc4:	2c09      	cmp	r4, #9
      pbuf[2 * idx] = (value >> 28) + '0';
 8002dc6:	bf94      	ite	ls
 8002dc8:	3430      	addls	r4, #48	; 0x30
      pbuf[2 * idx] = (value >> 28) + 'A' - 10;
 8002dca:	3437      	addhi	r4, #55	; 0x37
 8002dcc:	f801 4013 	strb.w	r4, [r1, r3, lsl #1]
    pbuf[2 * idx + 1] = 0;
 8002dd0:	eb01 0443 	add.w	r4, r1, r3, lsl #1
    value = value << 4;
 8002dd4:	0100      	lsls	r0, r0, #4
    pbuf[2 * idx + 1] = 0;
 8002dd6:	7065      	strb	r5, [r4, #1]
 8002dd8:	3301      	adds	r3, #1
 8002dda:	e7ee      	b.n	8002dba <IntToUnicode+0x6>

08002ddc <USBD_FS_SerialStrDescriptor>:
  *length = USB_SIZ_STRING_SERIAL;
 8002ddc:	231a      	movs	r3, #26
{
 8002dde:	b510      	push	{r4, lr}
  *length = USB_SIZ_STRING_SERIAL;
 8002de0:	800b      	strh	r3, [r1, #0]
  deviceserial0 = *(uint32_t *) DEVICE_ID1;
 8002de2:	4b09      	ldr	r3, [pc, #36]	; (8002e08 <USBD_FS_SerialStrDescriptor+0x2c>)
 8002de4:	6818      	ldr	r0, [r3, #0]
  deviceserial2 = *(uint32_t *) DEVICE_ID3;
 8002de6:	3308      	adds	r3, #8
  deviceserial0 += deviceserial2;
 8002de8:	681b      	ldr	r3, [r3, #0]
  if (deviceserial0 != 0)
 8002dea:	18c0      	adds	r0, r0, r3
 8002dec:	d00a      	beq.n	8002e04 <USBD_FS_SerialStrDescriptor+0x28>
  deviceserial1 = *(uint32_t *) DEVICE_ID2;
 8002dee:	4b07      	ldr	r3, [pc, #28]	; (8002e0c <USBD_FS_SerialStrDescriptor+0x30>)
    IntToUnicode(deviceserial0, &USBD_StringSerial[2], 8);
 8002df0:	4907      	ldr	r1, [pc, #28]	; (8002e10 <USBD_FS_SerialStrDescriptor+0x34>)
  deviceserial1 = *(uint32_t *) DEVICE_ID2;
 8002df2:	681c      	ldr	r4, [r3, #0]
    IntToUnicode(deviceserial0, &USBD_StringSerial[2], 8);
 8002df4:	2208      	movs	r2, #8
 8002df6:	f7ff ffdd 	bl	8002db4 <IntToUnicode>
    IntToUnicode(deviceserial1, &USBD_StringSerial[18], 4);
 8002dfa:	2204      	movs	r2, #4
 8002dfc:	4905      	ldr	r1, [pc, #20]	; (8002e14 <USBD_FS_SerialStrDescriptor+0x38>)
 8002dfe:	4620      	mov	r0, r4
 8002e00:	f7ff ffd8 	bl	8002db4 <IntToUnicode>
}
 8002e04:	4804      	ldr	r0, [pc, #16]	; (8002e18 <USBD_FS_SerialStrDescriptor+0x3c>)
 8002e06:	bd10      	pop	{r4, pc}
 8002e08:	1fff7a10 	.word	0x1fff7a10
 8002e0c:	1fff7a14 	.word	0x1fff7a14
 8002e10:	2000016e 	.word	0x2000016e
 8002e14:	2000017e 	.word	0x2000017e
 8002e18:	2000016c 	.word	0x2000016c

08002e1c <USBD_FS_ManufacturerStrDescriptor>:
{
 8002e1c:	b510      	push	{r4, lr}
  USBD_GetString((uint8_t *)USBD_MANUFACTURER_STRING, USBD_StrDesc, length);
 8002e1e:	4c04      	ldr	r4, [pc, #16]	; (8002e30 <USBD_FS_ManufacturerStrDescriptor+0x14>)
 8002e20:	4804      	ldr	r0, [pc, #16]	; (8002e34 <USBD_FS_ManufacturerStrDescriptor+0x18>)
 8002e22:	460a      	mov	r2, r1
 8002e24:	4621      	mov	r1, r4
 8002e26:	f7ff fbf1 	bl	800260c <USBD_GetString>
}
 8002e2a:	4620      	mov	r0, r4
 8002e2c:	bd10      	pop	{r4, pc}
 8002e2e:	bf00      	nop
 8002e30:	2000194c 	.word	0x2000194c
 8002e34:	080031c9 	.word	0x080031c9

08002e38 <USBD_FS_ProductStrDescriptor>:
{
 8002e38:	b510      	push	{r4, lr}
    USBD_GetString((uint8_t *)USBD_PRODUCT_STRING_FS, USBD_StrDesc, length);
 8002e3a:	4c04      	ldr	r4, [pc, #16]	; (8002e4c <USBD_FS_ProductStrDescriptor+0x14>)
 8002e3c:	4804      	ldr	r0, [pc, #16]	; (8002e50 <USBD_FS_ProductStrDescriptor+0x18>)
 8002e3e:	460a      	mov	r2, r1
 8002e40:	4621      	mov	r1, r4
 8002e42:	f7ff fbe3 	bl	800260c <USBD_GetString>
}
 8002e46:	4620      	mov	r0, r4
 8002e48:	bd10      	pop	{r4, pc}
 8002e4a:	bf00      	nop
 8002e4c:	2000194c 	.word	0x2000194c
 8002e50:	080031db 	.word	0x080031db

08002e54 <USBD_FS_ConfigStrDescriptor>:
{
 8002e54:	b510      	push	{r4, lr}
    USBD_GetString((uint8_t *)USBD_CONFIGURATION_STRING_FS, USBD_StrDesc, length);
 8002e56:	4c04      	ldr	r4, [pc, #16]	; (8002e68 <USBD_FS_ConfigStrDescriptor+0x14>)
 8002e58:	4804      	ldr	r0, [pc, #16]	; (8002e6c <USBD_FS_ConfigStrDescriptor+0x18>)
 8002e5a:	460a      	mov	r2, r1
 8002e5c:	4621      	mov	r1, r4
 8002e5e:	f7ff fbd5 	bl	800260c <USBD_GetString>
}
 8002e62:	4620      	mov	r0, r4
 8002e64:	bd10      	pop	{r4, pc}
 8002e66:	bf00      	nop
 8002e68:	2000194c 	.word	0x2000194c
 8002e6c:	080031b0 	.word	0x080031b0

08002e70 <USBD_FS_InterfaceStrDescriptor>:
{
 8002e70:	b510      	push	{r4, lr}
    USBD_GetString((uint8_t *)USBD_INTERFACE_STRING_FS, USBD_StrDesc, length);
 8002e72:	4c04      	ldr	r4, [pc, #16]	; (8002e84 <USBD_FS_InterfaceStrDescriptor+0x14>)
 8002e74:	4804      	ldr	r0, [pc, #16]	; (8002e88 <USBD_FS_InterfaceStrDescriptor+0x18>)
 8002e76:	460a      	mov	r2, r1
 8002e78:	4621      	mov	r1, r4
 8002e7a:	f7ff fbc7 	bl	800260c <USBD_GetString>
}
 8002e7e:	4620      	mov	r0, r4
 8002e80:	bd10      	pop	{r4, pc}
 8002e82:	bf00      	nop
 8002e84:	2000194c 	.word	0x2000194c
 8002e88:	080031bb 	.word	0x080031bb

08002e8c <Reset_Handler>:

    .section  .text.Reset_Handler
  .weak  Reset_Handler
  .type  Reset_Handler, %function
Reset_Handler:  
  ldr   sp, =_estack     /* set stack pointer */
 8002e8c:	f8df d034 	ldr.w	sp, [pc, #52]	; 8002ec4 <LoopFillZerobss+0x14>

/* Copy the data segment initializers from flash to SRAM */  
  movs  r1, #0
 8002e90:	2100      	movs	r1, #0
  b  LoopCopyDataInit
 8002e92:	e003      	b.n	8002e9c <LoopCopyDataInit>

08002e94 <CopyDataInit>:

CopyDataInit:
  ldr  r3, =_sidata
 8002e94:	4b0c      	ldr	r3, [pc, #48]	; (8002ec8 <LoopFillZerobss+0x18>)
  ldr  r3, [r3, r1]
 8002e96:	585b      	ldr	r3, [r3, r1]
  str  r3, [r0, r1]
 8002e98:	5043      	str	r3, [r0, r1]
  adds  r1, r1, #4
 8002e9a:	3104      	adds	r1, #4

08002e9c <LoopCopyDataInit>:
    
LoopCopyDataInit:
  ldr  r0, =_sdata
 8002e9c:	480b      	ldr	r0, [pc, #44]	; (8002ecc <LoopFillZerobss+0x1c>)
  ldr  r3, =_edata
 8002e9e:	4b0c      	ldr	r3, [pc, #48]	; (8002ed0 <LoopFillZerobss+0x20>)
  adds  r2, r0, r1
 8002ea0:	1842      	adds	r2, r0, r1
  cmp  r2, r3
 8002ea2:	429a      	cmp	r2, r3
  bcc  CopyDataInit
 8002ea4:	d3f6      	bcc.n	8002e94 <CopyDataInit>
  ldr  r2, =_sbss
 8002ea6:	4a0b      	ldr	r2, [pc, #44]	; (8002ed4 <LoopFillZerobss+0x24>)
  b  LoopFillZerobss
 8002ea8:	e002      	b.n	8002eb0 <LoopFillZerobss>

08002eaa <FillZerobss>:
/* Zero fill the bss segment. */  
FillZerobss:
  movs  r3, #0
 8002eaa:	2300      	movs	r3, #0
  str  r3, [r2], #4
 8002eac:	f842 3b04 	str.w	r3, [r2], #4

08002eb0 <LoopFillZerobss>:
    
LoopFillZerobss:
  ldr  r3, = _ebss
 8002eb0:	4b09      	ldr	r3, [pc, #36]	; (8002ed8 <LoopFillZerobss+0x28>)
  cmp  r2, r3
 8002eb2:	429a      	cmp	r2, r3
  bcc  FillZerobss
 8002eb4:	d3f9      	bcc.n	8002eaa <FillZerobss>

/* Call the clock system intitialization function.*/
  bl  SystemInit   
 8002eb6:	f7ff fd9f 	bl	80029f8 <SystemInit>
/* Call static constructors */
    bl __libc_init_array
 8002eba:	f000 f817 	bl	8002eec <__libc_init_array>
/* Call the application's entry point.*/
  bl  main
 8002ebe:	f7ff fcbb 	bl	8002838 <main>
  bx  lr    
 8002ec2:	4770      	bx	lr
  ldr   sp, =_estack     /* set stack pointer */
 8002ec4:	20020000 	.word	0x20020000
  ldr  r3, =_sidata
 8002ec8:	08003220 	.word	0x08003220
  ldr  r0, =_sdata
 8002ecc:	20000000 	.word	0x20000000
  ldr  r3, =_edata
 8002ed0:	200001ec 	.word	0x200001ec
  ldr  r2, =_sbss
 8002ed4:	200001ec 	.word	0x200001ec
  ldr  r3, = _ebss
 8002ed8:	20001b50 	.word	0x20001b50

08002edc <ADC_IRQHandler>:
 * @retval None       
*/
    .section  .text.Default_Handler,"ax",%progbits
Default_Handler:
Infinite_Loop:
  b  Infinite_Loop
 8002edc:	e7fe      	b.n	8002edc <ADC_IRQHandler>
	...

08002ee0 <__errno>:
 8002ee0:	4b01      	ldr	r3, [pc, #4]	; (8002ee8 <__errno+0x8>)
 8002ee2:	6818      	ldr	r0, [r3, #0]
 8002ee4:	4770      	bx	lr
 8002ee6:	bf00      	nop
 8002ee8:	20000188 	.word	0x20000188

08002eec <__libc_init_array>:
 8002eec:	b570      	push	{r4, r5, r6, lr}
 8002eee:	4e0d      	ldr	r6, [pc, #52]	; (8002f24 <__libc_init_array+0x38>)
 8002ef0:	4c0d      	ldr	r4, [pc, #52]	; (8002f28 <__libc_init_array+0x3c>)
 8002ef2:	1ba4      	subs	r4, r4, r6
 8002ef4:	10a4      	asrs	r4, r4, #2
 8002ef6:	2500      	movs	r5, #0
 8002ef8:	42a5      	cmp	r5, r4
 8002efa:	d109      	bne.n	8002f10 <__libc_init_array+0x24>
 8002efc:	4e0b      	ldr	r6, [pc, #44]	; (8002f2c <__libc_init_array+0x40>)
 8002efe:	4c0c      	ldr	r4, [pc, #48]	; (8002f30 <__libc_init_array+0x44>)
 8002f00:	f000 f948 	bl	8003194 <_init>
 8002f04:	1ba4      	subs	r4, r4, r6
 8002f06:	10a4      	asrs	r4, r4, #2
 8002f08:	2500      	movs	r5, #0
 8002f0a:	42a5      	cmp	r5, r4
 8002f0c:	d105      	bne.n	8002f1a <__libc_init_array+0x2e>
 8002f0e:	bd70      	pop	{r4, r5, r6, pc}
 8002f10:	f856 3025 	ldr.w	r3, [r6, r5, lsl #2]
 8002f14:	4798      	blx	r3
 8002f16:	3501      	adds	r5, #1
 8002f18:	e7ee      	b.n	8002ef8 <__libc_init_array+0xc>
 8002f1a:	f856 3025 	ldr.w	r3, [r6, r5, lsl #2]
 8002f1e:	4798      	blx	r3
 8002f20:	3501      	adds	r5, #1
 8002f22:	e7f2      	b.n	8002f0a <__libc_init_array+0x1e>
 8002f24:	08003218 	.word	0x08003218
 8002f28:	08003218 	.word	0x08003218
 8002f2c:	08003218 	.word	0x08003218
 8002f30:	0800321c 	.word	0x0800321c

08002f34 <__itoa>:
 8002f34:	1e93      	subs	r3, r2, #2
 8002f36:	2b22      	cmp	r3, #34	; 0x22
 8002f38:	b510      	push	{r4, lr}
 8002f3a:	460c      	mov	r4, r1
 8002f3c:	d904      	bls.n	8002f48 <__itoa+0x14>
 8002f3e:	2300      	movs	r3, #0
 8002f40:	700b      	strb	r3, [r1, #0]
 8002f42:	461c      	mov	r4, r3
 8002f44:	4620      	mov	r0, r4
 8002f46:	bd10      	pop	{r4, pc}
 8002f48:	2a0a      	cmp	r2, #10
 8002f4a:	d109      	bne.n	8002f60 <__itoa+0x2c>
 8002f4c:	2800      	cmp	r0, #0
 8002f4e:	da07      	bge.n	8002f60 <__itoa+0x2c>
 8002f50:	232d      	movs	r3, #45	; 0x2d
 8002f52:	700b      	strb	r3, [r1, #0]
 8002f54:	4240      	negs	r0, r0
 8002f56:	2101      	movs	r1, #1
 8002f58:	4421      	add	r1, r4
 8002f5a:	f000 f8d9 	bl	8003110 <__utoa>
 8002f5e:	e7f1      	b.n	8002f44 <__itoa+0x10>
 8002f60:	2100      	movs	r1, #0
 8002f62:	e7f9      	b.n	8002f58 <__itoa+0x24>

08002f64 <itoa>:
 8002f64:	f7ff bfe6 	b.w	8002f34 <__itoa>

08002f68 <malloc>:
 8002f68:	4b02      	ldr	r3, [pc, #8]	; (8002f74 <malloc+0xc>)
 8002f6a:	4601      	mov	r1, r0
 8002f6c:	6818      	ldr	r0, [r3, #0]
 8002f6e:	f000 b861 	b.w	8003034 <_malloc_r>
 8002f72:	bf00      	nop
 8002f74:	20000188 	.word	0x20000188

08002f78 <free>:
 8002f78:	4b02      	ldr	r3, [pc, #8]	; (8002f84 <free+0xc>)
 8002f7a:	4601      	mov	r1, r0
 8002f7c:	6818      	ldr	r0, [r3, #0]
 8002f7e:	f000 b80b 	b.w	8002f98 <_free_r>
 8002f82:	bf00      	nop
 8002f84:	20000188 	.word	0x20000188

08002f88 <memset>:
 8002f88:	4402      	add	r2, r0
 8002f8a:	4603      	mov	r3, r0
 8002f8c:	4293      	cmp	r3, r2
 8002f8e:	d100      	bne.n	8002f92 <memset+0xa>
 8002f90:	4770      	bx	lr
 8002f92:	f803 1b01 	strb.w	r1, [r3], #1
 8002f96:	e7f9      	b.n	8002f8c <memset+0x4>

08002f98 <_free_r>:
 8002f98:	b538      	push	{r3, r4, r5, lr}
 8002f9a:	4605      	mov	r5, r0
 8002f9c:	2900      	cmp	r1, #0
 8002f9e:	d045      	beq.n	800302c <_free_r+0x94>
 8002fa0:	f851 3c04 	ldr.w	r3, [r1, #-4]
 8002fa4:	1f0c      	subs	r4, r1, #4
 8002fa6:	2b00      	cmp	r3, #0
 8002fa8:	bfb8      	it	lt
 8002faa:	18e4      	addlt	r4, r4, r3
 8002fac:	f000 f8f0 	bl	8003190 <__malloc_lock>
 8002fb0:	4a1f      	ldr	r2, [pc, #124]	; (8003030 <_free_r+0x98>)
 8002fb2:	6813      	ldr	r3, [r2, #0]
 8002fb4:	4610      	mov	r0, r2
 8002fb6:	b933      	cbnz	r3, 8002fc6 <_free_r+0x2e>
 8002fb8:	6063      	str	r3, [r4, #4]
 8002fba:	6014      	str	r4, [r2, #0]
 8002fbc:	4628      	mov	r0, r5
 8002fbe:	e8bd 4038 	ldmia.w	sp!, {r3, r4, r5, lr}
 8002fc2:	f000 b8e6 	b.w	8003192 <__malloc_unlock>
 8002fc6:	42a3      	cmp	r3, r4
 8002fc8:	d90c      	bls.n	8002fe4 <_free_r+0x4c>
 8002fca:	6821      	ldr	r1, [r4, #0]
 8002fcc:	1862      	adds	r2, r4, r1
 8002fce:	4293      	cmp	r3, r2
 8002fd0:	bf04      	itt	eq
 8002fd2:	681a      	ldreq	r2, [r3, #0]
 8002fd4:	685b      	ldreq	r3, [r3, #4]
 8002fd6:	6063      	str	r3, [r4, #4]
 8002fd8:	bf04      	itt	eq
 8002fda:	1852      	addeq	r2, r2, r1
 8002fdc:	6022      	streq	r2, [r4, #0]
 8002fde:	6004      	str	r4, [r0, #0]
 8002fe0:	e7ec      	b.n	8002fbc <_free_r+0x24>
 8002fe2:	4613      	mov	r3, r2
 8002fe4:	685a      	ldr	r2, [r3, #4]
 8002fe6:	b10a      	cbz	r2, 8002fec <_free_r+0x54>
 8002fe8:	42a2      	cmp	r2, r4
 8002fea:	d9fa      	bls.n	8002fe2 <_free_r+0x4a>
 8002fec:	6819      	ldr	r1, [r3, #0]
 8002fee:	1858      	adds	r0, r3, r1
 8002ff0:	42a0      	cmp	r0, r4
 8002ff2:	d10b      	bne.n	800300c <_free_r+0x74>
 8002ff4:	6820      	ldr	r0, [r4, #0]
 8002ff6:	4401      	add	r1, r0
 8002ff8:	1858      	adds	r0, r3, r1
 8002ffa:	4282      	cmp	r2, r0
 8002ffc:	6019      	str	r1, [r3, #0]
 8002ffe:	d1dd      	bne.n	8002fbc <_free_r+0x24>
 8003000:	6810      	ldr	r0, [r2, #0]
 8003002:	6852      	ldr	r2, [r2, #4]
 8003004:	605a      	str	r2, [r3, #4]
 8003006:	4401      	add	r1, r0
 8003008:	6019      	str	r1, [r3, #0]
 800300a:	e7d7      	b.n	8002fbc <_free_r+0x24>
 800300c:	d902      	bls.n	8003014 <_free_r+0x7c>
 800300e:	230c      	movs	r3, #12
 8003010:	602b      	str	r3, [r5, #0]
 8003012:	e7d3      	b.n	8002fbc <_free_r+0x24>
 8003014:	6820      	ldr	r0, [r4, #0]
 8003016:	1821      	adds	r1, r4, r0
 8003018:	428a      	cmp	r2, r1
 800301a:	bf04      	itt	eq
 800301c:	6811      	ldreq	r1, [r2, #0]
 800301e:	6852      	ldreq	r2, [r2, #4]
 8003020:	6062      	str	r2, [r4, #4]
 8003022:	bf04      	itt	eq
 8003024:	1809      	addeq	r1, r1, r0
 8003026:	6021      	streq	r1, [r4, #0]
 8003028:	605c      	str	r4, [r3, #4]
 800302a:	e7c7      	b.n	8002fbc <_free_r+0x24>
 800302c:	bd38      	pop	{r3, r4, r5, pc}
 800302e:	bf00      	nop
 8003030:	20000218 	.word	0x20000218

08003034 <_malloc_r>:
 8003034:	b570      	push	{r4, r5, r6, lr}
 8003036:	1ccd      	adds	r5, r1, #3
 8003038:	f025 0503 	bic.w	r5, r5, #3
 800303c:	3508      	adds	r5, #8
 800303e:	2d0c      	cmp	r5, #12
 8003040:	bf38      	it	cc
 8003042:	250c      	movcc	r5, #12
 8003044:	2d00      	cmp	r5, #0
 8003046:	4606      	mov	r6, r0
 8003048:	db01      	blt.n	800304e <_malloc_r+0x1a>
 800304a:	42a9      	cmp	r1, r5
 800304c:	d903      	bls.n	8003056 <_malloc_r+0x22>
 800304e:	230c      	movs	r3, #12
 8003050:	6033      	str	r3, [r6, #0]
 8003052:	2000      	movs	r0, #0
 8003054:	bd70      	pop	{r4, r5, r6, pc}
 8003056:	f000 f89b 	bl	8003190 <__malloc_lock>
 800305a:	4a23      	ldr	r2, [pc, #140]	; (80030e8 <_malloc_r+0xb4>)
 800305c:	6814      	ldr	r4, [r2, #0]
 800305e:	4621      	mov	r1, r4
 8003060:	b991      	cbnz	r1, 8003088 <_malloc_r+0x54>
 8003062:	4c22      	ldr	r4, [pc, #136]	; (80030ec <_malloc_r+0xb8>)
 8003064:	6823      	ldr	r3, [r4, #0]
 8003066:	b91b      	cbnz	r3, 8003070 <_malloc_r+0x3c>
 8003068:	4630      	mov	r0, r6
 800306a:	f000 f841 	bl	80030f0 <_sbrk_r>
 800306e:	6020      	str	r0, [r4, #0]
 8003070:	4629      	mov	r1, r5
 8003072:	4630      	mov	r0, r6
 8003074:	f000 f83c 	bl	80030f0 <_sbrk_r>
 8003078:	1c43      	adds	r3, r0, #1
 800307a:	d126      	bne.n	80030ca <_malloc_r+0x96>
 800307c:	230c      	movs	r3, #12
 800307e:	6033      	str	r3, [r6, #0]
 8003080:	4630      	mov	r0, r6
 8003082:	f000 f886 	bl	8003192 <__malloc_unlock>
 8003086:	e7e4      	b.n	8003052 <_malloc_r+0x1e>
 8003088:	680b      	ldr	r3, [r1, #0]
 800308a:	1b5b      	subs	r3, r3, r5
 800308c:	d41a      	bmi.n	80030c4 <_malloc_r+0x90>
 800308e:	2b0b      	cmp	r3, #11
 8003090:	d90f      	bls.n	80030b2 <_malloc_r+0x7e>
 8003092:	600b      	str	r3, [r1, #0]
 8003094:	50cd      	str	r5, [r1, r3]
 8003096:	18cc      	adds	r4, r1, r3
 8003098:	4630      	mov	r0, r6
 800309a:	f000 f87a 	bl	8003192 <__malloc_unlock>
 800309e:	f104 000b 	add.w	r0, r4, #11
 80030a2:	1d23      	adds	r3, r4, #4
 80030a4:	f020 0007 	bic.w	r0, r0, #7
 80030a8:	1ac3      	subs	r3, r0, r3
 80030aa:	d01b      	beq.n	80030e4 <_malloc_r+0xb0>
 80030ac:	425a      	negs	r2, r3
 80030ae:	50e2      	str	r2, [r4, r3]
 80030b0:	bd70      	pop	{r4, r5, r6, pc}
 80030b2:	428c      	cmp	r4, r1
 80030b4:	bf0d      	iteet	eq
 80030b6:	6863      	ldreq	r3, [r4, #4]
 80030b8:	684b      	ldrne	r3, [r1, #4]
 80030ba:	6063      	strne	r3, [r4, #4]
 80030bc:	6013      	streq	r3, [r2, #0]
 80030be:	bf18      	it	ne
 80030c0:	460c      	movne	r4, r1
 80030c2:	e7e9      	b.n	8003098 <_malloc_r+0x64>
 80030c4:	460c      	mov	r4, r1
 80030c6:	6849      	ldr	r1, [r1, #4]
 80030c8:	e7ca      	b.n	8003060 <_malloc_r+0x2c>
 80030ca:	1cc4      	adds	r4, r0, #3
 80030cc:	f024 0403 	bic.w	r4, r4, #3
 80030d0:	42a0      	cmp	r0, r4
 80030d2:	d005      	beq.n	80030e0 <_malloc_r+0xac>
 80030d4:	1a21      	subs	r1, r4, r0
 80030d6:	4630      	mov	r0, r6
 80030d8:	f000 f80a 	bl	80030f0 <_sbrk_r>
 80030dc:	3001      	adds	r0, #1
 80030de:	d0cd      	beq.n	800307c <_malloc_r+0x48>
 80030e0:	6025      	str	r5, [r4, #0]
 80030e2:	e7d9      	b.n	8003098 <_malloc_r+0x64>
 80030e4:	bd70      	pop	{r4, r5, r6, pc}
 80030e6:	bf00      	nop
 80030e8:	20000218 	.word	0x20000218
 80030ec:	2000021c 	.word	0x2000021c

080030f0 <_sbrk_r>:
 80030f0:	b538      	push	{r3, r4, r5, lr}
 80030f2:	4c06      	ldr	r4, [pc, #24]	; (800310c <_sbrk_r+0x1c>)
 80030f4:	2300      	movs	r3, #0
 80030f6:	4605      	mov	r5, r0
 80030f8:	4608      	mov	r0, r1
 80030fa:	6023      	str	r3, [r4, #0]
 80030fc:	f7ff fc62 	bl	80029c4 <_sbrk>
 8003100:	1c43      	adds	r3, r0, #1
 8003102:	d102      	bne.n	800310a <_sbrk_r+0x1a>
 8003104:	6823      	ldr	r3, [r4, #0]
 8003106:	b103      	cbz	r3, 800310a <_sbrk_r+0x1a>
 8003108:	602b      	str	r3, [r5, #0]
 800310a:	bd38      	pop	{r3, r4, r5, pc}
 800310c:	20001b4c 	.word	0x20001b4c

08003110 <__utoa>:
 8003110:	b5f0      	push	{r4, r5, r6, r7, lr}
 8003112:	4c1e      	ldr	r4, [pc, #120]	; (800318c <__utoa+0x7c>)
 8003114:	b08b      	sub	sp, #44	; 0x2c
 8003116:	4603      	mov	r3, r0
 8003118:	460f      	mov	r7, r1
 800311a:	466d      	mov	r5, sp
 800311c:	f104 0e20 	add.w	lr, r4, #32
 8003120:	6820      	ldr	r0, [r4, #0]
 8003122:	6861      	ldr	r1, [r4, #4]
 8003124:	462e      	mov	r6, r5
 8003126:	c603      	stmia	r6!, {r0, r1}
 8003128:	3408      	adds	r4, #8
 800312a:	4574      	cmp	r4, lr
 800312c:	4635      	mov	r5, r6
 800312e:	d1f7      	bne.n	8003120 <__utoa+0x10>
 8003130:	7921      	ldrb	r1, [r4, #4]
 8003132:	7131      	strb	r1, [r6, #4]
 8003134:	1e91      	subs	r1, r2, #2
 8003136:	6820      	ldr	r0, [r4, #0]
 8003138:	6030      	str	r0, [r6, #0]
 800313a:	2922      	cmp	r1, #34	; 0x22
 800313c:	f04f 0100 	mov.w	r1, #0
 8003140:	d904      	bls.n	800314c <__utoa+0x3c>
 8003142:	7039      	strb	r1, [r7, #0]
 8003144:	460f      	mov	r7, r1
 8003146:	4638      	mov	r0, r7
 8003148:	b00b      	add	sp, #44	; 0x2c
 800314a:	bdf0      	pop	{r4, r5, r6, r7, pc}
 800314c:	1e78      	subs	r0, r7, #1
 800314e:	4606      	mov	r6, r0
 8003150:	fbb3 f5f2 	udiv	r5, r3, r2
 8003154:	f10d 0e28 	add.w	lr, sp, #40	; 0x28
 8003158:	fb02 3315 	mls	r3, r2, r5, r3
 800315c:	4473      	add	r3, lr
 800315e:	1c4c      	adds	r4, r1, #1
 8003160:	f813 3c28 	ldrb.w	r3, [r3, #-40]
 8003164:	f806 3f01 	strb.w	r3, [r6, #1]!
 8003168:	462b      	mov	r3, r5
 800316a:	b965      	cbnz	r5, 8003186 <__utoa+0x76>
 800316c:	553d      	strb	r5, [r7, r4]
 800316e:	187a      	adds	r2, r7, r1
 8003170:	1acc      	subs	r4, r1, r3
 8003172:	42a3      	cmp	r3, r4
 8003174:	dae7      	bge.n	8003146 <__utoa+0x36>
 8003176:	7844      	ldrb	r4, [r0, #1]
 8003178:	7815      	ldrb	r5, [r2, #0]
 800317a:	f800 5f01 	strb.w	r5, [r0, #1]!
 800317e:	3301      	adds	r3, #1
 8003180:	f802 4901 	strb.w	r4, [r2], #-1
 8003184:	e7f4      	b.n	8003170 <__utoa+0x60>
 8003186:	4621      	mov	r1, r4
 8003188:	e7e2      	b.n	8003150 <__utoa+0x40>
 800318a:	bf00      	nop
 800318c:	080031f1 	.word	0x080031f1

08003190 <__malloc_lock>:
 8003190:	4770      	bx	lr

08003192 <__malloc_unlock>:
 8003192:	4770      	bx	lr

08003194 <_init>:
 8003194:	b5f8      	push	{r3, r4, r5, r6, r7, lr}
 8003196:	bf00      	nop
 8003198:	bcf8      	pop	{r3, r4, r5, r6, r7}
 800319a:	bc08      	pop	{r3}
 800319c:	469e      	mov	lr, r3
 800319e:	4770      	bx	lr

080031a0 <_fini>:
 80031a0:	b5f8      	push	{r3, r4, r5, r6, r7, lr}
 80031a2:	bf00      	nop
 80031a4:	bcf8      	pop	{r3, r4, r5, r6, r7}
 80031a6:	bc08      	pop	{r3}
 80031a8:	469e      	mov	lr, r3
 80031aa:	4770      	bx	lr
